
.\rom_0x08003000.elf:     file format elf32-littlearm
.\rom_0x08003000.elf
architecture: arm, flags 0x00000112:
EXEC_P, HAS_SYMS, D_PAGED
start address 0x08003000

Program Header:
0x70000001 off    0x000094b0 vaddr 0x080094b0 paddr 0x080094b0 align 2**2
         filesz 0x00000008 memsz 0x00000008 flags r--
    LOAD off    0x00000000 vaddr 0x08000000 paddr 0x08000000 align 2**15
         filesz 0x000096a0 memsz 0x000096a0 flags r-x
    LOAD off    0x00010000 vaddr 0x20000000 paddr 0x080096a0 align 2**15
         filesz 0x00000580 memsz 0x000005c8 flags rw-
private flags = 5000202: [Version5 EABI] [soft-float ABI] [has entry point]

Sections:
Idx Name          Size      VMA       LMA       File off  Algn
  0 .text         000064b0  08003000  08003000  00003000  2**3
                  CONTENTS, ALLOC, LOAD, READONLY, CODE
  1 .ARM.exidx    00000008  080094b0  080094b0  000094b0  2**2
                  CONTENTS, ALLOC, LOAD, READONLY, DATA
  2 .rodata       000001e8  080094b8  080094b8  000094b8  2**3
                  CONTENTS, ALLOC, LOAD, READONLY, DATA
  3 .data         00000580  20000000  080096a0  00010000  2**2
                  CONTENTS, ALLOC, LOAD, DATA
  4 .bss          00000048  20000580  08009c20  00010580  2**2
                  ALLOC
  5 .debug_info   00001044  00000000  00000000  00010580  2**0
                  CONTENTS, READONLY, DEBUGGING
  6 .debug_abbrev 0000061a  00000000  00000000  000115c4  2**0
                  CONTENTS, READONLY, DEBUGGING
  7 .debug_aranges 000000e0  00000000  00000000  00011be0  2**3
                  CONTENTS, READONLY, DEBUGGING
  8 .debug_line   000004e9  00000000  00000000  00011cc0  2**0
                  CONTENTS, READONLY, DEBUGGING
  9 .debug_str    00000484  00000000  00000000  000121a9  2**0
                  CONTENTS, READONLY, DEBUGGING
 10 .comment      00000030  00000000  00000000  0001262d  2**0
                  CONTENTS, READONLY
 11 .ARM.attributes 00000031  00000000  00000000  0001265d  2**0
                  CONTENTS, READONLY
 12 .debug_frame  00000a8c  00000000  00000000  00012690  2**2
                  CONTENTS, READONLY, DEBUGGING
 13 .debug_loc    0000054e  00000000  00000000  0001311c  2**0
                  CONTENTS, READONLY, DEBUGGING
 14 .debug_ranges 00000058  00000000  00000000  0001366a  2**0
                  CONTENTS, READONLY, DEBUGGING
SYMBOL TABLE:
08003000 l    d  .text	00000000 .text
080094b0 l    d  .ARM.exidx	00000000 .ARM.exidx
080094b8 l    d  .rodata	00000000 .rodata
20000000 l    d  .data	00000000 .data
20000580 l    d  .bss	00000000 .bss
00000000 l    d  .debug_info	00000000 .debug_info
00000000 l    d  .debug_abbrev	00000000 .debug_abbrev
00000000 l    d  .debug_aranges	00000000 .debug_aranges
00000000 l    d  .debug_line	00000000 .debug_line
00000000 l    d  .debug_str	00000000 .debug_str
00000000 l    d  .comment	00000000 .comment
00000000 l    d  .ARM.attributes	00000000 .ARM.attributes
00000000 l    d  .debug_frame	00000000 .debug_frame
00000000 l    d  .debug_loc	00000000 .debug_loc
00000000 l    d  .debug_ranges	00000000 .debug_ranges
00000000 l    df *ABS*	00000000 crt0.o
00000000 l    df *ABS*	00000000 clock.c
00000000 l    df *ABS*	00000000 core_cm3.c
00000000 l    df *ABS*	00000000 led.c
00000000 l    df *ABS*	00000000 main.c
00000000 l    df *ABS*	00000000 runtime.c
20000580 l       .bss	00000000 .LANCHOR0
20000580 l     O .bss	00000004 heap.4745
00000000 l    df *ABS*	00000000 uart.c
00000000 l    df *ABS*	00000000 vsprintf.c
00000000 l    df *ABS*	00000000 impure.c
20000004 l     O .data	000000f0 impure_data
00000000 l    df *ABS*	00000000 vfprintf.c
080094bc l       .rodata	00000000 .LANCHOR0
080094bc l     O .rodata	00000010 blanks.6752
080094cc l     O .rodata	00000010 zeroes.6753
00000000 l    df *ABS*	00000000 dtoa.c
08004900 l     F .text	0000014a quorem
00000000 l    df *ABS*	00000000 locale.c
200000f4 l       .data	00000000 .LANCHOR0
200000f4 l     O .data	00000020 lc_ctype_charset
20000118 l     O .data	00000020 lc_message_charset
20000138 l     O .data	00000038 lconv
00000000 l    df *ABS*	00000000 malloc.c
00000000 l    df *ABS*	00000000 mallocr.c
20000170 l       .data	00000000 .LANCHOR0
20000590 l       .bss	00000000 .LANCHOR1
00000000 l    df *ABS*	00000000 memchr-stub.c
00000000 l    df *ABS*	00000000 memcpy-stub.c
00000000 l    df *ABS*	00000000 mlock.c
00000000 l    df *ABS*	00000000 mprec.c
080094e0 l       .rodata	00000000 .LANCHOR0
080094e0 l     O .rodata	0000000c p05.5301
00000000 l    df *ABS*	00000000 s_fpclassify.c
00000000 l    df *ABS*	00000000 sbrkr.c
00000000 l    df *ABS*	00000000 lib_a-strcmp.o
00000000 l    df *ABS*	00000000 strlen.c
00000000 l    df *ABS*	00000000 vfprintf.c
08009608 l       .rodata	00000000 .LANCHOR0
08009608 l     O .rodata	00000010 blanks.6696
08009618 l     O .rodata	00000010 zeroes.6697
00000000 l    df *ABS*	00000000 mallocr.c
00000000 l    df *ABS*	00000000 mallocr.c
00000000 l    df *ABS*	00000000 memmove.c
00000000 l    df *ABS*	00000000 memset.c
00000000 l    df *ABS*	00000000 mallocr.c
00000000 l    df *ABS*	00000000 reent.c
00000000 l    df *ABS*	00000000 _udivsi3.o
08008260 l       .text	00000000 .udivsi3_skip_div0_test
00000000 l       *ABS*	00000000 shift
00000000 l    df *ABS*	00000000 _dvmd_tls.o
00000000 l    df *ABS*	00000000 _arm_addsubdf3.o
00000000 l    df *ABS*	00000000 _arm_muldivdf3.o
00000000 l    df *ABS*	00000000 _arm_cmpdf2.o
00000000 l    df *ABS*	00000000 _arm_fixdfsi.o
00000000 l    df *ABS*	00000000 _aeabi_uldivmod.o
00000000 l    df *ABS*	00000000 bpabi.c
00000000 l    df *ABS*	00000000 libgcc2.c
00000000 l    df *ABS*	00000000 libgcc2.c
00000000 l    df *ABS*	00000000 
080030d8 g     F .text	00000006 __set_PRIMASK
080069a0 g     F .text	00000034 _mprec_log10
08006a1c g     F .text	0000005e __any_on
080095b8 g     O .rodata	00000028 __mprec_tinytens
08008d44 g     F .text	00000012 .hidden __aeabi_dcmple
0800816c g     F .text	0000001a cleanup_glue
08008e2c g     F .text	00000030 .hidden __gnu_uldivmod_helper
08008c80 g     F .text	0000007a .hidden __cmpdf2
08008c80 g     F .text	0000007a .hidden __eqdf2
08008e5c g     F .text	00000352 .hidden __divdi3
080087f0 g     F .text	0000005a .hidden __floatdidf
0800342c g     F .text	0000001a vsprintf
080059d8 g     F .text	00000052 _setlocale_r
08006140 g     F .text	00000002 __malloc_unlock
080030e0 g     F .text	00000006 __get_FAULTMASK
08003100 g     F .text	00000004 __REV
08007c10 g     F .text	000000ce memmove
08006144 g     F .text	0000006c _Balloc
08008c70 g     F .text	0000008a .hidden __gtdf2
0800313c g     F .text	00000006 __STREXW
08003124 g     F .text	00000006 __LDREXW
200005c4 g     O .bss	00000004 errno
08008d0c g     F .text	00000010 .hidden __aeabi_cdcmple
080031b8 g     F .text	00000062 Main
08006094 g     F .text	000000a6 memcpy
08008cfc g     F .text	00000020 .hidden __aeabi_cdrcmple
08003174 g     F .text	0000001c LED_Display
08003448 g     F .text	000014b4 _svfprintf_r
08008780 g     F .text	00000022 .hidden __floatsidf
08008c78 g     F .text	00000082 .hidden __ltdf2
080031a4 g     F .text	00000012 LED_All_Off
08008dd0 g     F .text	00000000 .hidden __aeabi_uldivmod
08006a7c g     F .text	00000050 __fpclassifyd
08006940 g     F .text	0000005e __ratio
0800310c g     F .text	00000006 __RBIT
20000000 g       .data	00000000 __RW_BASE__
08005a74 g     F .text	00000010 malloc
08008260 g     F .text	0000025c .hidden __udivsi3
080094f0 g     O .rodata	000000c8 __mprec_tens
080030e8 g     F .text	00000006 __set_FAULTMASK
08005a2c g     F .text	0000000a __locale_charset
20000590 g     O .bss	00000004 __malloc_top_pad
20000114 g     O .data	00000004 __mb_cur_max
08008760 g     F .text	0000001e .hidden __aeabi_ui2d
08005a50 g     F .text	00000008 _localeconv_r
080063a0 g     F .text	00000012 __i2b
080084dc g     F .text	00000000 .hidden __aeabi_drsub
08006acc g     F .text	00000026 _sbrk_r
08003144 g     F .text	0000002e LED_Init
08008d30 g     F .text	00000012 .hidden __aeabi_dcmplt
08003048 g     F .text	00000058 Clock_Init
200005bc g     O .bss	00000004 __malloc_max_sbrked_mem
080087a4 g     F .text	0000003a .hidden __extendsfdf2
08008aa0 g     F .text	000001d0 .hidden __aeabi_ddiv
080084e8 g     F .text	00000276 .hidden __adddf3
20000580 g       .data	00000000 __RW_LIMIT__
08003398 g     F .text	00000060 Uart1_Printf
080067d8 g     F .text	000000ac __b2d
0800884c g     F .text	00000254 .hidden __aeabi_dmul
080030f0 g     F .text	00000006 __get_CONTROL
080094b8 g     O .rodata	00000004 _global_impure_ptr
08007d80 g     F .text	000003ea _realloc_r
080091b0 g     F .text	00000300 .hidden __udivdi3
080095e0 g     O .rodata	00000028 __mprec_bigtens
08006274 g     F .text	00000098 __s2b
08008760 g     F .text	0000001e .hidden __floatunsidf
0800321c g     F .text	00000044 _sbrk
08006664 g     F .text	00000042 __mcmp
080030a0 g     F .text	00000008 __get_PSP
080030a8 g     F .text	00000006 __set_PSP
08008188 g     F .text	000000d6 _reclaim_reent
0800630c g     F .text	0000003c __hi0bits
08008d80 g     F .text	0000004e .hidden __fixdfsi
080084e8 g     F .text	00000276 .hidden __aeabi_dadd
08008c78 g     F .text	00000082 .hidden __ledf2
080064f4 g     F .text	000000b8 __pow5mult
080087e0 g     F .text	0000006a .hidden __aeabi_ul2d
2000058c g     O .bss	00000004 __nlocale_changed
00000000  w      *UND*	00000000 __sf_fake_stderr
08003008 g     F .text	00000000 __start
08003114 g     F .text	00000008 __LDREXB
08008d6c g     F .text	00000012 .hidden __aeabi_dcmpgt
08006004 g     F .text	00000090 memchr
08007a78 g     F .text	00000198 _free_r
08005a38 g     F .text	0000000c __locale_mb_cur_max
08008d58 g     F .text	00000012 .hidden __aeabi_dcmpge
080030d0 g     F .text	00000006 __get_PRIMASK
20000588 g     O .bss	00000004 __mlocale_changed
080084e4 g     F .text	0000027a .hidden __aeabi_dsub
20000578 g     O .data	00000004 __malloc_sbrk_base
00000580 g       *ABS*	00000000 __RW_SIZE__
080087e0 g     F .text	0000006a .hidden __floatundidf
080065ac g     F .text	000000b6 __lshift
08006d90 g     F .text	00000104 __ssprint_r
080096a0 g       *ABS*	00000000 __RW_LOAD_ADDR__
08003108 g     F .text	00000004 __REVSH
080063b4 g     F .text	00000140 __multiply
20000594 g     O .bss	00000028 __malloc_current_mallinfo
08006884 g     F .text	000000ba __d2b
08008780 g     F .text	00000022 .hidden __aeabi_i2d
08003000 g       .text	00000000 __RO_BASE__
080084d8  w    F .text	00000002 .hidden __aeabi_ldiv0
08008aa0 g     F .text	000001d0 .hidden __divdf3
080069d4 g     F .text	00000046 __copybits
20000170 g     O .data	00000408 __malloc_av_
0800884c g     F .text	00000254 .hidden __muldf3
0800613c g     F .text	00000002 __malloc_lock
08007970 g     F .text	00000062 _calloc_r
00000000  w      *UND*	00000000 __sf_fake_stdin
08007ce0 g     F .text	0000009e memset
200005c0 g     O .bss	00000004 __malloc_max_total_mem
200005c4 g       .bss	00000000 __ZI_LIMIT__
08008260 g     F .text	00000000 .hidden __aeabi_uidiv
080030f8 g     F .text	00000006 __set_CONTROL
08004a4c g     F .text	00000f8a _dtoa_r
08005a94 g     F .text	0000056e _malloc_r
080087f0 g     F .text	0000005a .hidden __aeabi_l2d
08003354 g     F .text	00000042 Uart1_Send_String
08003318 g     F .text	0000003a Uart1_Send_Byte
08003190 g     F .text	00000012 LED_All_On
080079d4 g     F .text	000000a2 _malloc_trim_r
08006af4 g     F .text	00000000 strcmp
080030b0 g     F .text	00000008 __get_MSP
080096a0 g       .rodata	00000000 __RO_LIMIT__
08008c80 g     F .text	0000007a .hidden __nedf2
20000584 g     O .bss	00000004 _PathLocale
080033f8 g     F .text	00000032 _vsprintf_r
08005a58 g     F .text	00000012 setlocale
08003104 g     F .text	00000004 __REV16
20000000 g     O .data	00000004 _impure_ptr
08005a4c g     F .text	00000004 __locale_cjk_lang
08006e94 g     F .text	00000adc _svfiprintf_r
00000048 g       *ABS*	00000000 __ZI_SIZE__
080030b8 g     F .text	00000006 __set_MSP
08006794 g     F .text	00000042 __ulp
20000580 g       .bss	00000000 __ZI_BASE__
08005a6c g     F .text	00000008 localeconv
080084bc g     F .text	0000001a .hidden __aeabi_uidivmod
080030c8 g     F .text	00000006 __set_BASEPRI
08008d1c g     F .text	00000012 .hidden __aeabi_dcmpeq
08003260 g     F .text	000000b8 Uart1_Init
2000057c g     O .data	00000004 __malloc_trim_threshold
08005a44 g     F .text	00000008 __locale_msgcharset
08003134 g     F .text	00000008 __STREXH
080066a8 g     F .text	000000ea __mdiff
08008d80 g     F .text	0000004e .hidden __aeabi_d2iz
0800311c g     F .text	00000008 __LDREXH
00000000  w      *UND*	00000000 __sf_fake_stdout
080084d8  w    F .text	00000002 .hidden __aeabi_idiv0
08006d30 g     F .text	0000005e strlen
080030c0 g     F .text	00000006 __get_BASEPRI
08008d0c g     F .text	00000010 .hidden __aeabi_cdcmpeq
08008c70 g     F .text	0000008a .hidden __gedf2
08008dfc g     F .text	00000030 .hidden __gnu_ldivmod_helper
080087a4 g     F .text	0000003a .hidden __aeabi_f2d
0800312c g     F .text	00000008 __STREXB
080084e4 g     F .text	0000027a .hidden __subdf3
08006348 g     F .text	00000056 __lo0bits
08005a84 g     F .text	00000010 free
080061e8 g     F .text	0000008c __multadd
080061b0 g     F .text	00000036 _Bfree



Disassembly of section .text:

08003000 <__RO_BASE__>:
 8003000:	20005000 	andcs	r5, r0, r0
 8003004:	08003009 	stmdaeq	r0, {r0, r3, ip, sp}

08003008 <__start>:
 8003008:	480b      	ldr	r0, [pc, #44]	; (8003038 <__start+0x30>)
 800300a:	490c      	ldr	r1, [pc, #48]	; (800303c <__start+0x34>)
 800300c:	4b0c      	ldr	r3, [pc, #48]	; (8003040 <__start+0x38>)
 800300e:	4288      	cmp	r0, r1
 8003010:	d006      	beq.n	8003020 <__start+0x18>
 8003012:	4299      	cmp	r1, r3
 8003014:	bf3e      	ittt	cc
 8003016:	f850 2b04 	ldrcc.w	r2, [r0], #4
 800301a:	f841 2b04 	strcc.w	r2, [r1], #4
 800301e:	e7f8      	bcc.n	8003012 <__start+0xa>
 8003020:	4908      	ldr	r1, [pc, #32]	; (8003044 <__start+0x3c>)
 8003022:	f04f 0200 	mov.w	r2, #0
 8003026:	428b      	cmp	r3, r1
 8003028:	bf3c      	itt	cc
 800302a:	f843 2b04 	strcc.w	r2, [r3], #4
 800302e:	e7fa      	bcc.n	8003026 <__start+0x1e>
 8003030:	f000 f8c2 	bl	80031b8 <Main>
 8003034:	e7fe      	b.n	8003034 <__start+0x2c>
 8003036:	96a00000 	strtls	r0, [r0], r0
 800303a:	00000800 	andeq	r0, r0, r0, lsl #16
 800303e:	05802000 	streq	r2, [r0]
 8003042:	05c42000 	strbeq	r2, [r4]
 8003046:	f44f2000 	vst4.8	{d18-d21}, [pc], r0

08003048 <Clock_Init>:
 8003048:	f44f 5380 	mov.w	r3, #4096	; 0x1000
 800304c:	f2c4 0302 	movt	r3, #16386	; 0x4002
 8003050:	2201      	movs	r2, #1
 8003052:	601a      	str	r2, [r3, #0]
 8003054:	6819      	ldr	r1, [r3, #0]
 8003056:	f44f 6280 	mov.w	r2, #1024	; 0x400
 800305a:	f441 3180 	orr.w	r1, r1, #65536	; 0x10000
 800305e:	f2c0 021d 	movt	r2, #29
 8003062:	6019      	str	r1, [r3, #0]
 8003064:	605a      	str	r2, [r3, #4]
 8003066:	681a      	ldr	r2, [r3, #0]
 8003068:	4619      	mov	r1, r3
 800306a:	f042 7280 	orr.w	r2, r2, #16777216	; 0x1000000
 800306e:	601a      	str	r2, [r3, #0]
 8003070:	680a      	ldr	r2, [r1, #0]
 8003072:	f44f 5380 	mov.w	r3, #4096	; 0x1000
 8003076:	0192      	lsls	r2, r2, #6
 8003078:	f2c4 0302 	movt	r3, #16386	; 0x4002
 800307c:	d5f8      	bpl.n	8003070 <Clock_Init+0x28>
 800307e:	f44f 5200 	mov.w	r2, #8192	; 0x2000
 8003082:	f2c4 0202 	movt	r2, #16386	; 0x4002
 8003086:	6811      	ldr	r1, [r2, #0]
 8003088:	f021 0103 	bic.w	r1, r1, #3
 800308c:	f041 0102 	orr.w	r1, r1, #2
 8003090:	6011      	str	r1, [r2, #0]
 8003092:	685a      	ldr	r2, [r3, #4]
 8003094:	f022 0203 	bic.w	r2, r2, #3
 8003098:	f042 0202 	orr.w	r2, r2, #2
 800309c:	605a      	str	r2, [r3, #4]
 800309e:	4770      	bx	lr

080030a0 <__get_PSP>:
 80030a0:	f3ef 8009 	mrs	r0, PSP
 80030a4:	4600      	mov	r0, r0
 80030a6:	4770      	bx	lr

080030a8 <__set_PSP>:
 80030a8:	f380 8809 	msr	PSP, r0
 80030ac:	4770      	bx	lr
 80030ae:	bf00      	nop

080030b0 <__get_MSP>:
 80030b0:	f3ef 8008 	mrs	r0, MSP
 80030b4:	4600      	mov	r0, r0
 80030b6:	4770      	bx	lr

080030b8 <__set_MSP>:
 80030b8:	f380 8808 	msr	MSP, r0
 80030bc:	4770      	bx	lr
 80030be:	bf00      	nop

080030c0 <__get_BASEPRI>:
 80030c0:	f3ef 8012 	mrs	r0, BASEPRI_MAX
 80030c4:	4770      	bx	lr
 80030c6:	bf00      	nop

080030c8 <__set_BASEPRI>:
 80030c8:	f380 8811 	msr	BASEPRI, r0
 80030cc:	4770      	bx	lr
 80030ce:	bf00      	nop

080030d0 <__get_PRIMASK>:
 80030d0:	f3ef 8010 	mrs	r0, PRIMASK
 80030d4:	4770      	bx	lr
 80030d6:	bf00      	nop

080030d8 <__set_PRIMASK>:
 80030d8:	f380 8810 	msr	PRIMASK, r0
 80030dc:	4770      	bx	lr
 80030de:	bf00      	nop

080030e0 <__get_FAULTMASK>:
 80030e0:	f3ef 8013 	mrs	r0, FAULTMASK
 80030e4:	4770      	bx	lr
 80030e6:	bf00      	nop

080030e8 <__set_FAULTMASK>:
 80030e8:	f380 8813 	msr	FAULTMASK, r0
 80030ec:	4770      	bx	lr
 80030ee:	bf00      	nop

080030f0 <__get_CONTROL>:
 80030f0:	f3ef 8014 	mrs	r0, CONTROL
 80030f4:	4770      	bx	lr
 80030f6:	bf00      	nop

080030f8 <__set_CONTROL>:
 80030f8:	f380 8814 	msr	CONTROL, r0
 80030fc:	4770      	bx	lr
 80030fe:	bf00      	nop

08003100 <__REV>:
 8003100:	ba00      	rev	r0, r0
 8003102:	4770      	bx	lr

08003104 <__REV16>:
 8003104:	ba40      	rev16	r0, r0
 8003106:	4770      	bx	lr

08003108 <__REVSH>:
 8003108:	bac0      	revsh	r0, r0
 800310a:	4770      	bx	lr

0800310c <__RBIT>:
 800310c:	fa90 f0a0 	rbit	r0, r0
 8003110:	4770      	bx	lr
 8003112:	bf00      	nop

08003114 <__LDREXB>:
 8003114:	e8d0 0f4f 	ldrexb	r0, [r0]
 8003118:	b2c0      	uxtb	r0, r0
 800311a:	4770      	bx	lr

0800311c <__LDREXH>:
 800311c:	e8d0 0f5f 	ldrexh	r0, [r0]
 8003120:	b280      	uxth	r0, r0
 8003122:	4770      	bx	lr

08003124 <__LDREXW>:
 8003124:	e850 0f00 	ldrex	r0, [r0]
 8003128:	4770      	bx	lr
 800312a:	bf00      	nop

0800312c <__STREXB>:
 800312c:	e8c1 0f43 	strexb	r3, r0, [r1]
 8003130:	4618      	mov	r0, r3
 8003132:	4770      	bx	lr

08003134 <__STREXH>:
 8003134:	e8c1 0f53 	strexh	r3, r0, [r1]
 8003138:	4618      	mov	r0, r3
 800313a:	4770      	bx	lr

0800313c <__STREXW>:
 800313c:	e841 0000 	strex	r0, r0, [r1]
 8003140:	4770      	bx	lr
 8003142:	bf00      	nop

08003144 <LED_Init>:
 8003144:	f44f 5280 	mov.w	r2, #4096	; 0x1000
 8003148:	f2c4 0202 	movt	r2, #16386	; 0x4002
 800314c:	6991      	ldr	r1, [r2, #24]
 800314e:	f44f 6340 	mov.w	r3, #3072	; 0xc00
 8003152:	f041 0108 	orr.w	r1, r1, #8
 8003156:	6191      	str	r1, [r2, #24]
 8003158:	f2c4 0301 	movt	r3, #16385	; 0x4001
 800315c:	685a      	ldr	r2, [r3, #4]
 800315e:	f022 02ff 	bic.w	r2, r2, #255	; 0xff
 8003162:	f042 0266 	orr.w	r2, r2, #102	; 0x66
 8003166:	605a      	str	r2, [r3, #4]
 8003168:	68da      	ldr	r2, [r3, #12]
 800316a:	f442 7240 	orr.w	r2, r2, #768	; 0x300
 800316e:	60da      	str	r2, [r3, #12]
 8003170:	4770      	bx	lr
 8003172:	bf00      	nop

08003174 <LED_Display>:
 8003174:	f44f 6340 	mov.w	r3, #3072	; 0xc00
 8003178:	f2c4 0301 	movt	r3, #16385	; 0x4001
 800317c:	68da      	ldr	r2, [r3, #12]
 800317e:	43c0      	mvns	r0, r0
 8003180:	f000 0003 	and.w	r0, r0, #3
 8003184:	f422 7240 	bic.w	r2, r2, #768	; 0x300
 8003188:	ea42 2200 	orr.w	r2, r2, r0, lsl #8
 800318c:	60da      	str	r2, [r3, #12]
 800318e:	4770      	bx	lr

08003190 <LED_All_On>:
 8003190:	f44f 6340 	mov.w	r3, #3072	; 0xc00
 8003194:	f2c4 0301 	movt	r3, #16385	; 0x4001
 8003198:	68da      	ldr	r2, [r3, #12]
 800319a:	f422 7240 	bic.w	r2, r2, #768	; 0x300
 800319e:	60da      	str	r2, [r3, #12]
 80031a0:	4770      	bx	lr
 80031a2:	bf00      	nop

080031a4 <LED_All_Off>:
 80031a4:	f44f 6340 	mov.w	r3, #3072	; 0xc00
 80031a8:	f2c4 0301 	movt	r3, #16385	; 0x4001
 80031ac:	68da      	ldr	r2, [r3, #12]
 80031ae:	f442 7240 	orr.w	r2, r2, #768	; 0x300
 80031b2:	60da      	str	r2, [r3, #12]
 80031b4:	4770      	bx	lr
 80031b6:	bf00      	nop

080031b8 <Main>:
 80031b8:	b508      	push	{r3, lr}
 80031ba:	f7ff ff45 	bl	8003048 <Clock_Init>
 80031be:	f7ff ffc1 	bl	8003144 <LED_Init>
 80031c2:	f44f 30e1 	mov.w	r0, #115200	; 0x1c200
 80031c6:	f000 f84b 	bl	8003260 <Uart1_Init>
 80031ca:	f249 6028 	movw	r0, #38440	; 0x9628
 80031ce:	f6c0 0000 	movt	r0, #2048	; 0x800
 80031d2:	f000 f8e1 	bl	8003398 <Uart1_Printf>
 80031d6:	f44f 6100 	mov.w	r1, #2048	; 0x800
 80031da:	f2c4 0101 	movt	r1, #16385	; 0x4001
 80031de:	680b      	ldr	r3, [r1, #0]
 80031e0:	460a      	mov	r2, r1
 80031e2:	f423 437f 	bic.w	r3, r3, #65280	; 0xff00
 80031e6:	f443 4306 	orr.w	r3, r3, #34304	; 0x8600
 80031ea:	600b      	str	r3, [r1, #0]
 80031ec:	68c8      	ldr	r0, [r1, #12]
 80031ee:	2301      	movs	r3, #1
 80031f0:	f040 0004 	orr.w	r0, r0, #4
 80031f4:	60c8      	str	r0, [r1, #12]
 80031f6:	68c8      	ldr	r0, [r1, #12]
 80031f8:	f040 0008 	orr.w	r0, r0, #8
 80031fc:	60c8      	str	r0, [r1, #12]
 80031fe:	b923      	cbnz	r3, 800320a <Main+0x52>
 8003200:	6893      	ldr	r3, [r2, #8]
 8003202:	f3c3 03c0 	ubfx	r3, r3, #3, #1
 8003206:	2b00      	cmp	r3, #0
 8003208:	d0fa      	beq.n	8003200 <Main+0x48>
 800320a:	6893      	ldr	r3, [r2, #8]
 800320c:	071b      	lsls	r3, r3, #28
 800320e:	d4fc      	bmi.n	800320a <Main+0x52>
 8003210:	68d3      	ldr	r3, [r2, #12]
 8003212:	f083 0304 	eor.w	r3, r3, #4
 8003216:	60d3      	str	r3, [r2, #12]
 8003218:	e7f2      	b.n	8003200 <Main+0x48>
 800321a:	bf00      	nop

0800321c <_sbrk>:
 800321c:	b410      	push	{r4}
 800321e:	f240 5380 	movw	r3, #1408	; 0x580
 8003222:	f2c2 0300 	movt	r3, #8192	; 0x2000
 8003226:	6819      	ldr	r1, [r3, #0]
 8003228:	4602      	mov	r2, r0
 800322a:	b181      	cbz	r1, 800324e <_sbrk+0x32>
 800322c:	4c0b      	ldr	r4, [pc, #44]	; (800325c <_sbrk+0x40>)
 800322e:	4608      	mov	r0, r1
 8003230:	f024 0107 	bic.w	r1, r4, #7
 8003234:	3207      	adds	r2, #7
 8003236:	4402      	add	r2, r0
 8003238:	f022 0207 	bic.w	r2, r2, #7
 800323c:	f501 5180 	add.w	r1, r1, #4096	; 0x1000
 8003240:	428a      	cmp	r2, r1
 8003242:	bf34      	ite	cc
 8003244:	601a      	strcc	r2, [r3, #0]
 8003246:	2000      	movcs	r0, #0
 8003248:	f85d 4b04 	ldr.w	r4, [sp], #4
 800324c:	4770      	bx	lr
 800324e:	4903      	ldr	r1, [pc, #12]	; (800325c <_sbrk+0x40>)
 8003250:	f021 0107 	bic.w	r1, r1, #7
 8003254:	6019      	str	r1, [r3, #0]
 8003256:	4608      	mov	r0, r1
 8003258:	e7ec      	b.n	8003234 <_sbrk+0x18>
 800325a:	bf00      	nop
 800325c:	200005cb 	andcs	r0, r0, fp, asr #11

08003260 <Uart1_Init>:
 8003260:	b570      	push	{r4, r5, r6, lr}
 8003262:	f44f 5280 	mov.w	r2, #4096	; 0x1000
 8003266:	f2c4 0202 	movt	r2, #16386	; 0x4002
 800326a:	6991      	ldr	r1, [r2, #24]
 800326c:	f44f 6300 	mov.w	r3, #2048	; 0x800
 8003270:	f041 0104 	orr.w	r1, r1, #4
 8003274:	6191      	str	r1, [r2, #24]
 8003276:	6991      	ldr	r1, [r2, #24]
 8003278:	f2c4 0301 	movt	r3, #16385	; 0x4001
 800327c:	f441 4180 	orr.w	r1, r1, #16384	; 0x4000
 8003280:	6191      	str	r1, [r2, #24]
 8003282:	685a      	ldr	r2, [r3, #4]
 8003284:	f422 627f 	bic.w	r2, r2, #4080	; 0xff0
 8003288:	f442 620a 	orr.w	r2, r2, #2208	; 0x8a0
 800328c:	605a      	str	r2, [r3, #4]
 800328e:	68da      	ldr	r2, [r3, #12]
 8003290:	f442 6280 	orr.w	r2, r2, #1024	; 0x400
 8003294:	60da      	str	r2, [r3, #12]
 8003296:	f005 fa73 	bl	8008780 <__aeabi_i2d>
 800329a:	2300      	movs	r3, #0
 800329c:	2200      	movs	r2, #0
 800329e:	f2c4 0330 	movt	r3, #16432	; 0x4030
 80032a2:	f005 fad3 	bl	800884c <__aeabi_dmul>
 80032a6:	4602      	mov	r2, r0
 80032a8:	460b      	mov	r3, r1
 80032aa:	a119      	add	r1, pc, #100	; (adr r1, 8003310 <Uart1_Init+0xb0>)
 80032ac:	e9d1 0100 	ldrd	r0, r1, [r1]
 80032b0:	f005 fbf6 	bl	8008aa0 <__aeabi_ddiv>
 80032b4:	460d      	mov	r5, r1
 80032b6:	4604      	mov	r4, r0
 80032b8:	f005 fd62 	bl	8008d80 <__aeabi_d2iz>
 80032bc:	4606      	mov	r6, r0
 80032be:	f005 fa4f 	bl	8008760 <__aeabi_ui2d>
 80032c2:	4602      	mov	r2, r0
 80032c4:	460b      	mov	r3, r1
 80032c6:	4620      	mov	r0, r4
 80032c8:	4629      	mov	r1, r5
 80032ca:	f005 f90b 	bl	80084e4 <__aeabi_dsub>
 80032ce:	2300      	movs	r3, #0
 80032d0:	2200      	movs	r2, #0
 80032d2:	f2c4 0330 	movt	r3, #16432	; 0x4030
 80032d6:	f005 fab9 	bl	800884c <__aeabi_dmul>
 80032da:	2300      	movs	r3, #0
 80032dc:	2200      	movs	r2, #0
 80032de:	f6c3 73e0 	movt	r3, #16352	; 0x3fe0
 80032e2:	f005 f901 	bl	80084e8 <__adddf3>
 80032e6:	f005 fd4b 	bl	8008d80 <__aeabi_d2iz>
 80032ea:	eb06 1610 	add.w	r6, r6, r0, lsr #4
 80032ee:	f000 000f 	and.w	r0, r0, #15
 80032f2:	eb00 1006 	add.w	r0, r0, r6, lsl #4
 80032f6:	f44f 5360 	mov.w	r3, #14336	; 0x3800
 80032fa:	f2c4 0301 	movt	r3, #16385	; 0x4001
 80032fe:	2200      	movs	r2, #0
 8003300:	b280      	uxth	r0, r0
 8003302:	f242 010c 	movw	r1, #8204	; 0x200c
 8003306:	8118      	strh	r0, [r3, #8]
 8003308:	8199      	strh	r1, [r3, #12]
 800330a:	821a      	strh	r2, [r3, #16]
 800330c:	829a      	strh	r2, [r3, #20]
 800330e:	bd70      	pop	{r4, r5, r6, pc}
 8003310:	00000000 	andeq	r0, r0, r0
 8003314:	41912a88 	orrsmi	r2, r1, r8, lsl #21

08003318 <Uart1_Send_Byte>:
 8003318:	280a      	cmp	r0, #10
 800331a:	d00c      	beq.n	8003336 <Uart1_Send_Byte+0x1e>
 800331c:	f44f 5160 	mov.w	r1, #14336	; 0x3800
 8003320:	f2c4 0101 	movt	r1, #16385	; 0x4001
 8003324:	880a      	ldrh	r2, [r1, #0]
 8003326:	f44f 5360 	mov.w	r3, #14336	; 0x3800
 800332a:	0612      	lsls	r2, r2, #24
 800332c:	f2c4 0301 	movt	r3, #16385	; 0x4001
 8003330:	d5f8      	bpl.n	8003324 <Uart1_Send_Byte+0xc>
 8003332:	8098      	strh	r0, [r3, #4]
 8003334:	4770      	bx	lr
 8003336:	f44f 5160 	mov.w	r1, #14336	; 0x3800
 800333a:	f2c4 0101 	movt	r1, #16385	; 0x4001
 800333e:	880a      	ldrh	r2, [r1, #0]
 8003340:	f44f 5360 	mov.w	r3, #14336	; 0x3800
 8003344:	0612      	lsls	r2, r2, #24
 8003346:	f2c4 0301 	movt	r3, #16385	; 0x4001
 800334a:	d5f8      	bpl.n	800333e <Uart1_Send_Byte+0x26>
 800334c:	220d      	movs	r2, #13
 800334e:	809a      	strh	r2, [r3, #4]
 8003350:	e7e4      	b.n	800331c <Uart1_Send_Byte+0x4>
 8003352:	bf00      	nop

08003354 <Uart1_Send_String>:
 8003354:	b430      	push	{r4, r5}
 8003356:	7804      	ldrb	r4, [r0, #0]
 8003358:	b194      	cbz	r4, 8003380 <Uart1_Send_String+0x2c>
 800335a:	f44f 5160 	mov.w	r1, #14336	; 0x3800
 800335e:	f2c4 0101 	movt	r1, #16385	; 0x4001
 8003362:	250d      	movs	r5, #13
 8003364:	2c0a      	cmp	r4, #10
 8003366:	d00d      	beq.n	8003384 <Uart1_Send_String+0x30>
 8003368:	880a      	ldrh	r2, [r1, #0]
 800336a:	f44f 5360 	mov.w	r3, #14336	; 0x3800
 800336e:	0612      	lsls	r2, r2, #24
 8003370:	f2c4 0301 	movt	r3, #16385	; 0x4001
 8003374:	d5f8      	bpl.n	8003368 <Uart1_Send_String+0x14>
 8003376:	809c      	strh	r4, [r3, #4]
 8003378:	f810 4f01 	ldrb.w	r4, [r0, #1]!
 800337c:	2c00      	cmp	r4, #0
 800337e:	d1f1      	bne.n	8003364 <Uart1_Send_String+0x10>
 8003380:	bc30      	pop	{r4, r5}
 8003382:	4770      	bx	lr
 8003384:	880a      	ldrh	r2, [r1, #0]
 8003386:	f44f 5360 	mov.w	r3, #14336	; 0x3800
 800338a:	0612      	lsls	r2, r2, #24
 800338c:	f2c4 0301 	movt	r3, #16385	; 0x4001
 8003390:	d5f8      	bpl.n	8003384 <Uart1_Send_String+0x30>
 8003392:	809d      	strh	r5, [r3, #4]
 8003394:	e7e8      	b.n	8003368 <Uart1_Send_String+0x14>
 8003396:	bf00      	nop

08003398 <Uart1_Printf>:
 8003398:	b40f      	push	{r0, r1, r2, r3}
 800339a:	b530      	push	{r4, r5, lr}
 800339c:	b0c3      	sub	sp, #268	; 0x10c
 800339e:	ab46      	add	r3, sp, #280	; 0x118
 80033a0:	f853 1b04 	ldr.w	r1, [r3], #4
 80033a4:	a802      	add	r0, sp, #8
 80033a6:	461a      	mov	r2, r3
 80033a8:	9301      	str	r3, [sp, #4]
 80033aa:	f000 f83f 	bl	800342c <vsprintf>
 80033ae:	f89d 0008 	ldrb.w	r0, [sp, #8]
 80033b2:	b198      	cbz	r0, 80033dc <Uart1_Printf+0x44>
 80033b4:	f44f 5160 	mov.w	r1, #14336	; 0x3800
 80033b8:	ac02      	add	r4, sp, #8
 80033ba:	f2c4 0101 	movt	r1, #16385	; 0x4001
 80033be:	250d      	movs	r5, #13
 80033c0:	280a      	cmp	r0, #10
 80033c2:	d010      	beq.n	80033e6 <Uart1_Printf+0x4e>
 80033c4:	880a      	ldrh	r2, [r1, #0]
 80033c6:	f44f 5360 	mov.w	r3, #14336	; 0x3800
 80033ca:	0612      	lsls	r2, r2, #24
 80033cc:	f2c4 0301 	movt	r3, #16385	; 0x4001
 80033d0:	d5f8      	bpl.n	80033c4 <Uart1_Printf+0x2c>
 80033d2:	8098      	strh	r0, [r3, #4]
 80033d4:	f814 0f01 	ldrb.w	r0, [r4, #1]!
 80033d8:	2800      	cmp	r0, #0
 80033da:	d1f1      	bne.n	80033c0 <Uart1_Printf+0x28>
 80033dc:	b043      	add	sp, #268	; 0x10c
 80033de:	e8bd 4030 	ldmia.w	sp!, {r4, r5, lr}
 80033e2:	b004      	add	sp, #16
 80033e4:	4770      	bx	lr
 80033e6:	880a      	ldrh	r2, [r1, #0]
 80033e8:	f44f 5360 	mov.w	r3, #14336	; 0x3800
 80033ec:	0612      	lsls	r2, r2, #24
 80033ee:	f2c4 0301 	movt	r3, #16385	; 0x4001
 80033f2:	d5f8      	bpl.n	80033e6 <Uart1_Printf+0x4e>
 80033f4:	809d      	strh	r5, [r3, #4]
 80033f6:	e7e5      	b.n	80033c4 <Uart1_Printf+0x2c>

080033f8 <_vsprintf_r>:
 80033f8:	b530      	push	{r4, r5, lr}
 80033fa:	b09b      	sub	sp, #108	; 0x6c
 80033fc:	460c      	mov	r4, r1
 80033fe:	4669      	mov	r1, sp
 8003400:	9400      	str	r4, [sp, #0]
 8003402:	f44f 7502 	mov.w	r5, #520	; 0x208
 8003406:	9404      	str	r4, [sp, #16]
 8003408:	f06f 4400 	mvn.w	r4, #2147483648	; 0x80000000
 800340c:	f8ad 500c 	strh.w	r5, [sp, #12]
 8003410:	f64f 75ff 	movw	r5, #65535	; 0xffff
 8003414:	9402      	str	r4, [sp, #8]
 8003416:	9405      	str	r4, [sp, #20]
 8003418:	f8ad 500e 	strh.w	r5, [sp, #14]
 800341c:	f000 f814 	bl	8003448 <_svfprintf_r>
 8003420:	9b00      	ldr	r3, [sp, #0]
 8003422:	2200      	movs	r2, #0
 8003424:	701a      	strb	r2, [r3, #0]
 8003426:	b01b      	add	sp, #108	; 0x6c
 8003428:	bd30      	pop	{r4, r5, pc}
 800342a:	bf00      	nop

0800342c <vsprintf>:
 800342c:	b430      	push	{r4, r5}
 800342e:	f240 0400 	movw	r4, #0
 8003432:	f2c2 0400 	movt	r4, #8192	; 0x2000
 8003436:	460d      	mov	r5, r1
 8003438:	4613      	mov	r3, r2
 800343a:	4601      	mov	r1, r0
 800343c:	462a      	mov	r2, r5
 800343e:	6820      	ldr	r0, [r4, #0]
 8003440:	bc30      	pop	{r4, r5}
 8003442:	f7ff bfd9 	b.w	80033f8 <_vsprintf_r>
 8003446:	bf00      	nop

08003448 <_svfprintf_r>:
 8003448:	e92d 4ff0 	stmdb	sp!, {r4, r5, r6, r7, r8, r9, sl, fp, lr}
 800344c:	b0c9      	sub	sp, #292	; 0x124
 800344e:	4691      	mov	r9, r2
 8003450:	9314      	str	r3, [sp, #80]	; 0x50
 8003452:	910b      	str	r1, [sp, #44]	; 0x2c
 8003454:	900e      	str	r0, [sp, #56]	; 0x38
 8003456:	f002 fafb 	bl	8005a50 <_localeconv_r>
 800345a:	6800      	ldr	r0, [r0, #0]
 800345c:	901a      	str	r0, [sp, #104]	; 0x68
 800345e:	f003 fc67 	bl	8006d30 <strlen>
 8003462:	9c0b      	ldr	r4, [sp, #44]	; 0x2c
 8003464:	89a3      	ldrh	r3, [r4, #12]
 8003466:	901d      	str	r0, [sp, #116]	; 0x74
 8003468:	0618      	lsls	r0, r3, #24
 800346a:	d503      	bpl.n	8003474 <_svfprintf_r+0x2c>
 800346c:	6923      	ldr	r3, [r4, #16]
 800346e:	2b00      	cmp	r3, #0
 8003470:	f001 8079 	beq.w	8004566 <_svfprintf_r+0x111e>
 8003474:	f249 45bc 	movw	r5, #38076	; 0x94bc
 8003478:	ac38      	add	r4, sp, #224	; 0xe0
 800347a:	f6c0 0500 	movt	r5, #2048	; 0x800
 800347e:	9515      	str	r5, [sp, #84]	; 0x54
 8003480:	f10d 05df 	add.w	r5, sp, #223	; 0xdf
 8003484:	9508      	str	r5, [sp, #32]
 8003486:	9d15      	ldr	r5, [sp, #84]	; 0x54
 8003488:	af38      	add	r7, sp, #224	; 0xe0
 800348a:	9409      	str	r4, [sp, #36]	; 0x24
 800348c:	f249 6480 	movw	r4, #38528	; 0x9680
 8003490:	f105 0610 	add.w	r6, r5, #16
 8003494:	9d08      	ldr	r5, [sp, #32]
 8003496:	2300      	movs	r3, #0
 8003498:	f6c0 0400 	movt	r4, #2048	; 0x800
 800349c:	9311      	str	r3, [sp, #68]	; 0x44
 800349e:	9417      	str	r4, [sp, #92]	; 0x5c
 80034a0:	1b7c      	subs	r4, r7, r5
 80034a2:	931b      	str	r3, [sp, #108]	; 0x6c
 80034a4:	931c      	str	r3, [sp, #112]	; 0x70
 80034a6:	9319      	str	r3, [sp, #100]	; 0x64
 80034a8:	931e      	str	r3, [sp, #120]	; 0x78
 80034aa:	9312      	str	r3, [sp, #72]	; 0x48
 80034ac:	9421      	str	r4, [sp, #132]	; 0x84
 80034ae:	932d      	str	r3, [sp, #180]	; 0xb4
 80034b0:	932c      	str	r3, [sp, #176]	; 0xb0
 80034b2:	972b      	str	r7, [sp, #172]	; 0xac
 80034b4:	f899 3000 	ldrb.w	r3, [r9]
 80034b8:	2b25      	cmp	r3, #37	; 0x25
 80034ba:	bf18      	it	ne
 80034bc:	2b00      	cmpne	r3, #0
 80034be:	f000 80b3 	beq.w	8003628 <_svfprintf_r+0x1e0>
 80034c2:	f109 0201 	add.w	r2, r9, #1
 80034c6:	4614      	mov	r4, r2
 80034c8:	3201      	adds	r2, #1
 80034ca:	7823      	ldrb	r3, [r4, #0]
 80034cc:	2b25      	cmp	r3, #37	; 0x25
 80034ce:	bf18      	it	ne
 80034d0:	2b00      	cmpne	r3, #0
 80034d2:	d1f8      	bne.n	80034c6 <_svfprintf_r+0x7e>
 80034d4:	ebb4 0509 	subs.w	r5, r4, r9
 80034d8:	d00f      	beq.n	80034fa <_svfprintf_r+0xb2>
 80034da:	9b2c      	ldr	r3, [sp, #176]	; 0xb0
 80034dc:	9a2d      	ldr	r2, [sp, #180]	; 0xb4
 80034de:	3301      	adds	r3, #1
 80034e0:	f8c7 9000 	str.w	r9, [r7]
 80034e4:	2b07      	cmp	r3, #7
 80034e6:	607d      	str	r5, [r7, #4]
 80034e8:	442a      	add	r2, r5
 80034ea:	932c      	str	r3, [sp, #176]	; 0xb0
 80034ec:	922d      	str	r2, [sp, #180]	; 0xb4
 80034ee:	bfd8      	it	le
 80034f0:	3708      	addle	r7, #8
 80034f2:	dc7f      	bgt.n	80035f4 <_svfprintf_r+0x1ac>
 80034f4:	9812      	ldr	r0, [sp, #72]	; 0x48
 80034f6:	4428      	add	r0, r5
 80034f8:	9012      	str	r0, [sp, #72]	; 0x48
 80034fa:	7823      	ldrb	r3, [r4, #0]
 80034fc:	2b00      	cmp	r3, #0
 80034fe:	f000 8081 	beq.w	8003604 <_svfprintf_r+0x1bc>
 8003502:	2300      	movs	r3, #0
 8003504:	f88d 308f 	strb.w	r3, [sp, #143]	; 0x8f
 8003508:	461a      	mov	r2, r3
 800350a:	9313      	str	r3, [sp, #76]	; 0x4c
 800350c:	930a      	str	r3, [sp, #40]	; 0x28
 800350e:	f104 0901 	add.w	r9, r4, #1
 8003512:	7863      	ldrb	r3, [r4, #1]
 8003514:	f04f 34ff 	mov.w	r4, #4294967295
 8003518:	940c      	str	r4, [sp, #48]	; 0x30
 800351a:	f109 0901 	add.w	r9, r9, #1
 800351e:	f1a3 0120 	sub.w	r1, r3, #32
 8003522:	2958      	cmp	r1, #88	; 0x58
 8003524:	f200 840a 	bhi.w	8003d3c <_svfprintf_r+0x8f4>
 8003528:	e8df f011 	tbh	[pc, r1, lsl #1]
 800352c:	0408038e 	streq	r0, [r8], #-910	; 0xfffffc72
 8003530:	03950408 	orrseq	r0, r5, #8, 8	; 0x8000000
 8003534:	04080408 	streq	r0, [r8], #-1032	; 0xfffffbf8
 8003538:	04080408 	streq	r0, [r8], #-1032	; 0xfffffbf8
 800353c:	04080408 	streq	r0, [r8], #-1032	; 0xfffffbf8
 8003540:	0348039c 	movteq	r0, #33692	; 0x839c
 8003544:	005d0408 	subseq	r0, sp, r8, lsl #8
 8003548:	04080235 	streq	r0, [r8], #-565	; 0xfffffdcb
 800354c:	03f603ef 	mvnseq	r0, #-1140850685	; 0xbc000003
 8003550:	03f603f6 	mvnseq	r0, #-671088637	; 0xd8000003
 8003554:	03f603f6 	mvnseq	r0, #-671088637	; 0xd8000003
 8003558:	03f603f6 	mvnseq	r0, #-671088637	; 0xd8000003
 800355c:	03f603f6 	mvnseq	r0, #-671088637	; 0xd8000003
 8003560:	04080408 	streq	r0, [r8], #-1032	; 0xfffffbf8
 8003564:	04080408 	streq	r0, [r8], #-1032	; 0xfffffbf8
 8003568:	04080408 	streq	r0, [r8], #-1032	; 0xfffffbf8
 800356c:	04080408 	streq	r0, [r8], #-1032	; 0xfffffbf8
 8003570:	04080408 	streq	r0, [r8], #-1032	; 0xfffffbf8
 8003574:	0290026e 	addseq	r0, r0, #-536870906	; 0xe0000006
 8003578:	02900408 	addseq	r0, r0, #8, 8	; 0x8000000
 800357c:	04080408 	streq	r0, [r8], #-1032	; 0xfffffbf8
 8003580:	04080408 	streq	r0, [r8], #-1032	; 0xfffffbf8
 8003584:	040802cd 	streq	r0, [r8], #-717	; 0xfffffd33
 8003588:	02d40408 	sbcseq	r0, r4, #8, 8	; 0x8000000
 800358c:	04080408 	streq	r0, [r8], #-1032	; 0xfffffbf8
 8003590:	04080408 	streq	r0, [r8], #-1032	; 0xfffffbf8
 8003594:	02550408 	subseq	r0, r5, #8, 8	; 0x8000000
 8003598:	04080408 	streq	r0, [r8], #-1032	; 0xfffffbf8
 800359c:	040803bc 	streq	r0, [r8], #-956	; 0xfffffc44
 80035a0:	04080408 	streq	r0, [r8], #-1032	; 0xfffffbf8
 80035a4:	04080408 	streq	r0, [r8], #-1032	; 0xfffffbf8
 80035a8:	04080408 	streq	r0, [r8], #-1032	; 0xfffffbf8
 80035ac:	04080408 	streq	r0, [r8], #-1032	; 0xfffffbf8
 80035b0:	03a80408 			; <UNDEFINED> instruction: 0x03a80408
 80035b4:	029003d7 	addseq	r0, r0, #1543503875	; 0x5c000003
 80035b8:	02900290 	addseq	r0, r0, #144, 4
 80035bc:	03d70387 	bicseq	r0, r7, #469762050	; 0x1c000002
 80035c0:	04080408 	streq	r0, [r8], #-1032	; 0xfffffbf8
 80035c4:	0408034c 	streq	r0, [r8], #-844	; 0xfffffcb4
 80035c8:	0224035e 	eoreq	r0, r4, #2013265921	; 0x78000001
 80035cc:	02f00370 	rscseq	r0, r0, #112, 6	; 0xc0000001
 80035d0:	02f70408 	rscseq	r0, r7, #8, 8	; 0x8000000
 80035d4:	00800408 	addeq	r0, r0, r8, lsl #8
 80035d8:	04080408 	streq	r0, [r8], #-1032	; 0xfffffbf8
 80035dc:	9c130320 	ldcls	3, cr0, [r3], {32}
 80035e0:	9314      	str	r3, [sp, #80]	; 0x50
 80035e2:	4264      	negs	r4, r4
 80035e4:	9413      	str	r4, [sp, #76]	; 0x4c
 80035e6:	9d0a      	ldr	r5, [sp, #40]	; 0x28
 80035e8:	f045 0504 	orr.w	r5, r5, #4
 80035ec:	950a      	str	r5, [sp, #40]	; 0x28
 80035ee:	f899 3000 	ldrb.w	r3, [r9]
 80035f2:	e792      	b.n	800351a <_svfprintf_r+0xd2>
 80035f4:	980e      	ldr	r0, [sp, #56]	; 0x38
 80035f6:	aa2b      	add	r2, sp, #172	; 0xac
 80035f8:	990b      	ldr	r1, [sp, #44]	; 0x2c
 80035fa:	f003 fbc9 	bl	8006d90 <__ssprint_r>
 80035fe:	b940      	cbnz	r0, 8003612 <_svfprintf_r+0x1ca>
 8003600:	af38      	add	r7, sp, #224	; 0xe0
 8003602:	e777      	b.n	80034f4 <_svfprintf_r+0xac>
 8003604:	9b2d      	ldr	r3, [sp, #180]	; 0xb4
 8003606:	b123      	cbz	r3, 8003612 <_svfprintf_r+0x1ca>
 8003608:	980e      	ldr	r0, [sp, #56]	; 0x38
 800360a:	aa2b      	add	r2, sp, #172	; 0xac
 800360c:	990b      	ldr	r1, [sp, #44]	; 0x2c
 800360e:	f003 fbbf 	bl	8006d90 <__ssprint_r>
 8003612:	9c0b      	ldr	r4, [sp, #44]	; 0x2c
 8003614:	9812      	ldr	r0, [sp, #72]	; 0x48
 8003616:	89a3      	ldrh	r3, [r4, #12]
 8003618:	f013 0f40 	tst.w	r3, #64	; 0x40
 800361c:	bf18      	it	ne
 800361e:	f04f 30ff 	movne.w	r0, #4294967295
 8003622:	b049      	add	sp, #292	; 0x124
 8003624:	e8bd 8ff0 	ldmia.w	sp!, {r4, r5, r6, r7, r8, r9, sl, fp, pc}
 8003628:	464c      	mov	r4, r9
 800362a:	e766      	b.n	80034fa <_svfprintf_r+0xb2>
 800362c:	9c0a      	ldr	r4, [sp, #40]	; 0x28
 800362e:	9316      	str	r3, [sp, #88]	; 0x58
 8003630:	06a3      	lsls	r3, r4, #26
 8003632:	f140 81d9 	bpl.w	80039e8 <_svfprintf_r+0x5a0>
 8003636:	9d14      	ldr	r5, [sp, #80]	; 0x50
 8003638:	2301      	movs	r3, #1
 800363a:	1dea      	adds	r2, r5, #7
 800363c:	f022 0207 	bic.w	r2, r2, #7
 8003640:	f102 0408 	add.w	r4, r2, #8
 8003644:	9414      	str	r4, [sp, #80]	; 0x50
 8003646:	e9d2 4500 	ldrd	r4, r5, [r2]
 800364a:	f04f 0a00 	mov.w	sl, #0
 800364e:	f88d a08f 	strb.w	sl, [sp, #143]	; 0x8f
 8003652:	980c      	ldr	r0, [sp, #48]	; 0x30
 8003654:	2800      	cmp	r0, #0
 8003656:	980c      	ldr	r0, [sp, #48]	; 0x30
 8003658:	bfa2      	ittt	ge
 800365a:	990a      	ldrge	r1, [sp, #40]	; 0x28
 800365c:	f021 0180 	bicge.w	r1, r1, #128	; 0x80
 8003660:	910a      	strge	r1, [sp, #40]	; 0x28
 8003662:	ea54 0205 	orrs.w	r2, r4, r5
 8003666:	bf0c      	ite	eq
 8003668:	2200      	moveq	r2, #0
 800366a:	2201      	movne	r2, #1
 800366c:	2800      	cmp	r0, #0
 800366e:	bf18      	it	ne
 8003670:	f042 0201 	orrne.w	r2, r2, #1
 8003674:	2a00      	cmp	r2, #0
 8003676:	f000 83e5 	beq.w	8003e44 <_svfprintf_r+0x9fc>
 800367a:	2b01      	cmp	r3, #1
 800367c:	f000 8509 	beq.w	8004092 <_svfprintf_r+0xc4a>
 8003680:	2b02      	cmp	r3, #2
 8003682:	f10d 02df 	add.w	r2, sp, #223	; 0xdf
 8003686:	f040 8159 	bne.w	800393c <_svfprintf_r+0x4f4>
 800368a:	f8dd c064 	ldr.w	ip, [sp, #100]	; 0x64
 800368e:	f004 010f 	and.w	r1, r4, #15
 8003692:	0923      	lsrs	r3, r4, #4
 8003694:	ea43 7305 	orr.w	r3, r3, r5, lsl #28
 8003698:	0928      	lsrs	r0, r5, #4
 800369a:	f81c 1001 	ldrb.w	r1, [ip, r1]
 800369e:	461c      	mov	r4, r3
 80036a0:	4605      	mov	r5, r0
 80036a2:	4690      	mov	r8, r2
 80036a4:	ea54 0005 	orrs.w	r0, r4, r5
 80036a8:	f102 32ff 	add.w	r2, r2, #4294967295
 80036ac:	f888 1000 	strb.w	r1, [r8]
 80036b0:	d1ed      	bne.n	800368e <_svfprintf_r+0x246>
 80036b2:	9b09      	ldr	r3, [sp, #36]	; 0x24
 80036b4:	ebc8 0303 	rsb	r3, r8, r3
 80036b8:	9310      	str	r3, [sp, #64]	; 0x40
 80036ba:	9c0c      	ldr	r4, [sp, #48]	; 0x30
 80036bc:	9d10      	ldr	r5, [sp, #64]	; 0x40
 80036be:	42a5      	cmp	r5, r4
 80036c0:	bfb8      	it	lt
 80036c2:	4625      	movlt	r5, r4
 80036c4:	2400      	movs	r4, #0
 80036c6:	950d      	str	r5, [sp, #52]	; 0x34
 80036c8:	9418      	str	r4, [sp, #96]	; 0x60
 80036ca:	f1ba 0f00 	cmp.w	sl, #0
 80036ce:	d002      	beq.n	80036d6 <_svfprintf_r+0x28e>
 80036d0:	9d0d      	ldr	r5, [sp, #52]	; 0x34
 80036d2:	3501      	adds	r5, #1
 80036d4:	950d      	str	r5, [sp, #52]	; 0x34
 80036d6:	9b0a      	ldr	r3, [sp, #40]	; 0x28
 80036d8:	f013 0302 	ands.w	r3, r3, #2
 80036dc:	930f      	str	r3, [sp, #60]	; 0x3c
 80036de:	bf1e      	ittt	ne
 80036e0:	9c0d      	ldrne	r4, [sp, #52]	; 0x34
 80036e2:	3402      	addne	r4, #2
 80036e4:	940d      	strne	r4, [sp, #52]	; 0x34
 80036e6:	9c0a      	ldr	r4, [sp, #40]	; 0x28
 80036e8:	f014 0584 	ands.w	r5, r4, #132	; 0x84
 80036ec:	f040 8346 	bne.w	8003d7c <_svfprintf_r+0x934>
 80036f0:	9c13      	ldr	r4, [sp, #76]	; 0x4c
 80036f2:	980d      	ldr	r0, [sp, #52]	; 0x34
 80036f4:	ebc0 0b04 	rsb	fp, r0, r4
 80036f8:	f1bb 0f00 	cmp.w	fp, #0
 80036fc:	f340 833e 	ble.w	8003d7c <_svfprintf_r+0x934>
 8003700:	f1bb 0f10 	cmp.w	fp, #16
 8003704:	f249 4abc 	movw	sl, #38076	; 0x94bc
 8003708:	992d      	ldr	r1, [sp, #180]	; 0xb4
 800370a:	bfdc      	itt	le
 800370c:	f6c0 0a00 	movtle	sl, #2048	; 0x800
 8003710:	9a2c      	ldrle	r2, [sp, #176]	; 0xb0
 8003712:	dd32      	ble.n	800377a <_svfprintf_r+0x332>
 8003714:	f6c0 0a00 	movt	sl, #2048	; 0x800
 8003718:	f8cd 807c 	str.w	r8, [sp, #124]	; 0x7c
 800371c:	9520      	str	r5, [sp, #128]	; 0x80
 800371e:	46d8      	mov	r8, fp
 8003720:	9a2c      	ldr	r2, [sp, #176]	; 0xb0
 8003722:	46d3      	mov	fp, sl
 8003724:	2410      	movs	r4, #16
 8003726:	46ca      	mov	sl, r9
 8003728:	9d15      	ldr	r5, [sp, #84]	; 0x54
 800372a:	f8dd 902c 	ldr.w	r9, [sp, #44]	; 0x2c
 800372e:	e004      	b.n	800373a <_svfprintf_r+0x2f2>
 8003730:	f1a8 0810 	sub.w	r8, r8, #16
 8003734:	f1b8 0f10 	cmp.w	r8, #16
 8003738:	dd19      	ble.n	800376e <_svfprintf_r+0x326>
 800373a:	3201      	adds	r2, #1
 800373c:	3110      	adds	r1, #16
 800373e:	2a07      	cmp	r2, #7
 8003740:	603d      	str	r5, [r7, #0]
 8003742:	607c      	str	r4, [r7, #4]
 8003744:	f107 0708 	add.w	r7, r7, #8
 8003748:	922c      	str	r2, [sp, #176]	; 0xb0
 800374a:	912d      	str	r1, [sp, #180]	; 0xb4
 800374c:	ddf0      	ble.n	8003730 <_svfprintf_r+0x2e8>
 800374e:	980e      	ldr	r0, [sp, #56]	; 0x38
 8003750:	4649      	mov	r1, r9
 8003752:	aa2b      	add	r2, sp, #172	; 0xac
 8003754:	af38      	add	r7, sp, #224	; 0xe0
 8003756:	f003 fb1b 	bl	8006d90 <__ssprint_r>
 800375a:	2800      	cmp	r0, #0
 800375c:	f47f af59 	bne.w	8003612 <_svfprintf_r+0x1ca>
 8003760:	f1a8 0810 	sub.w	r8, r8, #16
 8003764:	992d      	ldr	r1, [sp, #180]	; 0xb4
 8003766:	f1b8 0f10 	cmp.w	r8, #16
 800376a:	9a2c      	ldr	r2, [sp, #176]	; 0xb0
 800376c:	dce5      	bgt.n	800373a <_svfprintf_r+0x2f2>
 800376e:	46d1      	mov	r9, sl
 8003770:	9d20      	ldr	r5, [sp, #128]	; 0x80
 8003772:	46da      	mov	sl, fp
 8003774:	46c3      	mov	fp, r8
 8003776:	f8dd 807c 	ldr.w	r8, [sp, #124]	; 0x7c
 800377a:	3201      	adds	r2, #1
 800377c:	eb0b 0401 	add.w	r4, fp, r1
 8003780:	2a07      	cmp	r2, #7
 8003782:	922c      	str	r2, [sp, #176]	; 0xb0
 8003784:	942d      	str	r4, [sp, #180]	; 0xb4
 8003786:	e887 0c00 	stmia.w	r7, {sl, fp}
 800378a:	f300 82ec 	bgt.w	8003d66 <_svfprintf_r+0x91e>
 800378e:	f89d a08f 	ldrb.w	sl, [sp, #143]	; 0x8f
 8003792:	3708      	adds	r7, #8
 8003794:	f1ba 0f00 	cmp.w	sl, #0
 8003798:	d00e      	beq.n	80037b8 <_svfprintf_r+0x370>
 800379a:	9b2c      	ldr	r3, [sp, #176]	; 0xb0
 800379c:	f10d 028f 	add.w	r2, sp, #143	; 0x8f
 80037a0:	3401      	adds	r4, #1
 80037a2:	603a      	str	r2, [r7, #0]
 80037a4:	3301      	adds	r3, #1
 80037a6:	2201      	movs	r2, #1
 80037a8:	2b07      	cmp	r3, #7
 80037aa:	607a      	str	r2, [r7, #4]
 80037ac:	942d      	str	r4, [sp, #180]	; 0xb4
 80037ae:	bfd8      	it	le
 80037b0:	3708      	addle	r7, #8
 80037b2:	932c      	str	r3, [sp, #176]	; 0xb0
 80037b4:	f300 8402 	bgt.w	8003fbc <_svfprintf_r+0xb74>
 80037b8:	9b0f      	ldr	r3, [sp, #60]	; 0x3c
 80037ba:	b16b      	cbz	r3, 80037d8 <_svfprintf_r+0x390>
 80037bc:	9b2c      	ldr	r3, [sp, #176]	; 0xb0
 80037be:	aa24      	add	r2, sp, #144	; 0x90
 80037c0:	3402      	adds	r4, #2
 80037c2:	603a      	str	r2, [r7, #0]
 80037c4:	3301      	adds	r3, #1
 80037c6:	2202      	movs	r2, #2
 80037c8:	2b07      	cmp	r3, #7
 80037ca:	607a      	str	r2, [r7, #4]
 80037cc:	942d      	str	r4, [sp, #180]	; 0xb4
 80037ce:	bfd8      	it	le
 80037d0:	3708      	addle	r7, #8
 80037d2:	932c      	str	r3, [sp, #176]	; 0xb0
 80037d4:	f300 83fe 	bgt.w	8003fd4 <_svfprintf_r+0xb8c>
 80037d8:	2d80      	cmp	r5, #128	; 0x80
 80037da:	f000 8346 	beq.w	8003e6a <_svfprintf_r+0xa22>
 80037de:	9d0c      	ldr	r5, [sp, #48]	; 0x30
 80037e0:	9b10      	ldr	r3, [sp, #64]	; 0x40
 80037e2:	ebc3 0a05 	rsb	sl, r3, r5
 80037e6:	f1ba 0f00 	cmp.w	sl, #0
 80037ea:	dd43      	ble.n	8003874 <_svfprintf_r+0x42c>
 80037ec:	f1ba 0f10 	cmp.w	sl, #16
 80037f0:	9b2c      	ldr	r3, [sp, #176]	; 0xb0
 80037f2:	bfdc      	itt	le
 80037f4:	4d94      	ldrle	r5, [pc, #592]	; (8003a48 <_svfprintf_r+0x600>)
 80037f6:	950f      	strle	r5, [sp, #60]	; 0x3c
 80037f8:	dd27      	ble.n	800384a <_svfprintf_r+0x402>
 80037fa:	4893      	ldr	r0, [pc, #588]	; (8003a48 <_svfprintf_r+0x600>)
 80037fc:	4622      	mov	r2, r4
 80037fe:	2510      	movs	r5, #16
 8003800:	f8dd b038 	ldr.w	fp, [sp, #56]	; 0x38
 8003804:	9c0b      	ldr	r4, [sp, #44]	; 0x2c
 8003806:	900f      	str	r0, [sp, #60]	; 0x3c
 8003808:	e004      	b.n	8003814 <_svfprintf_r+0x3cc>
 800380a:	f1aa 0a10 	sub.w	sl, sl, #16
 800380e:	f1ba 0f10 	cmp.w	sl, #16
 8003812:	dd19      	ble.n	8003848 <_svfprintf_r+0x400>
 8003814:	3301      	adds	r3, #1
 8003816:	3210      	adds	r2, #16
 8003818:	2b07      	cmp	r3, #7
 800381a:	603e      	str	r6, [r7, #0]
 800381c:	607d      	str	r5, [r7, #4]
 800381e:	f107 0708 	add.w	r7, r7, #8
 8003822:	932c      	str	r3, [sp, #176]	; 0xb0
 8003824:	922d      	str	r2, [sp, #180]	; 0xb4
 8003826:	ddf0      	ble.n	800380a <_svfprintf_r+0x3c2>
 8003828:	4658      	mov	r0, fp
 800382a:	4621      	mov	r1, r4
 800382c:	aa2b      	add	r2, sp, #172	; 0xac
 800382e:	af38      	add	r7, sp, #224	; 0xe0
 8003830:	f003 faae 	bl	8006d90 <__ssprint_r>
 8003834:	2800      	cmp	r0, #0
 8003836:	f47f aeec 	bne.w	8003612 <_svfprintf_r+0x1ca>
 800383a:	f1aa 0a10 	sub.w	sl, sl, #16
 800383e:	9a2d      	ldr	r2, [sp, #180]	; 0xb4
 8003840:	f1ba 0f10 	cmp.w	sl, #16
 8003844:	9b2c      	ldr	r3, [sp, #176]	; 0xb0
 8003846:	dce5      	bgt.n	8003814 <_svfprintf_r+0x3cc>
 8003848:	4614      	mov	r4, r2
 800384a:	3301      	adds	r3, #1
 800384c:	9d0f      	ldr	r5, [sp, #60]	; 0x3c
 800384e:	2b07      	cmp	r3, #7
 8003850:	4454      	add	r4, sl
 8003852:	932c      	str	r3, [sp, #176]	; 0xb0
 8003854:	e887 0420 	stmia.w	r7, {r5, sl}
 8003858:	bfd8      	it	le
 800385a:	3708      	addle	r7, #8
 800385c:	942d      	str	r4, [sp, #180]	; 0xb4
 800385e:	dd09      	ble.n	8003874 <_svfprintf_r+0x42c>
 8003860:	980e      	ldr	r0, [sp, #56]	; 0x38
 8003862:	aa2b      	add	r2, sp, #172	; 0xac
 8003864:	990b      	ldr	r1, [sp, #44]	; 0x2c
 8003866:	f003 fa93 	bl	8006d90 <__ssprint_r>
 800386a:	2800      	cmp	r0, #0
 800386c:	f47f aed1 	bne.w	8003612 <_svfprintf_r+0x1ca>
 8003870:	9c2d      	ldr	r4, [sp, #180]	; 0xb4
 8003872:	af38      	add	r7, sp, #224	; 0xe0
 8003874:	9d0a      	ldr	r5, [sp, #40]	; 0x28
 8003876:	05eb      	lsls	r3, r5, #23
 8003878:	f100 8282 	bmi.w	8003d80 <_svfprintf_r+0x938>
 800387c:	9b2c      	ldr	r3, [sp, #176]	; 0xb0
 800387e:	9d10      	ldr	r5, [sp, #64]	; 0x40
 8003880:	3301      	adds	r3, #1
 8003882:	f8c7 8000 	str.w	r8, [r7]
 8003886:	2b07      	cmp	r3, #7
 8003888:	442c      	add	r4, r5
 800388a:	607d      	str	r5, [r7, #4]
 800388c:	942d      	str	r4, [sp, #180]	; 0xb4
 800388e:	932c      	str	r3, [sp, #176]	; 0xb0
 8003890:	f300 837a 	bgt.w	8003f88 <_svfprintf_r+0xb40>
 8003894:	3708      	adds	r7, #8
 8003896:	9d0a      	ldr	r5, [sp, #40]	; 0x28
 8003898:	076b      	lsls	r3, r5, #29
 800389a:	d540      	bpl.n	800391e <_svfprintf_r+0x4d6>
 800389c:	9813      	ldr	r0, [sp, #76]	; 0x4c
 800389e:	990d      	ldr	r1, [sp, #52]	; 0x34
 80038a0:	1a45      	subs	r5, r0, r1
 80038a2:	2d00      	cmp	r5, #0
 80038a4:	dd3b      	ble.n	800391e <_svfprintf_r+0x4d6>
 80038a6:	2d10      	cmp	r5, #16
 80038a8:	f249 4abc 	movw	sl, #38076	; 0x94bc
 80038ac:	9b2c      	ldr	r3, [sp, #176]	; 0xb0
 80038ae:	f6c0 0a00 	movt	sl, #2048	; 0x800
 80038b2:	dd22      	ble.n	80038fa <_svfprintf_r+0x4b2>
 80038b4:	4622      	mov	r2, r4
 80038b6:	f04f 0810 	mov.w	r8, #16
 80038ba:	f8dd b038 	ldr.w	fp, [sp, #56]	; 0x38
 80038be:	9c15      	ldr	r4, [sp, #84]	; 0x54
 80038c0:	e002      	b.n	80038c8 <_svfprintf_r+0x480>
 80038c2:	3d10      	subs	r5, #16
 80038c4:	2d10      	cmp	r5, #16
 80038c6:	dd17      	ble.n	80038f8 <_svfprintf_r+0x4b0>
 80038c8:	3301      	adds	r3, #1
 80038ca:	3210      	adds	r2, #16
 80038cc:	2b07      	cmp	r3, #7
 80038ce:	e887 0110 	stmia.w	r7, {r4, r8}
 80038d2:	932c      	str	r3, [sp, #176]	; 0xb0
 80038d4:	f107 0708 	add.w	r7, r7, #8
 80038d8:	922d      	str	r2, [sp, #180]	; 0xb4
 80038da:	ddf2      	ble.n	80038c2 <_svfprintf_r+0x47a>
 80038dc:	4658      	mov	r0, fp
 80038de:	990b      	ldr	r1, [sp, #44]	; 0x2c
 80038e0:	aa2b      	add	r2, sp, #172	; 0xac
 80038e2:	af38      	add	r7, sp, #224	; 0xe0
 80038e4:	f003 fa54 	bl	8006d90 <__ssprint_r>
 80038e8:	2800      	cmp	r0, #0
 80038ea:	f47f ae92 	bne.w	8003612 <_svfprintf_r+0x1ca>
 80038ee:	3d10      	subs	r5, #16
 80038f0:	9a2d      	ldr	r2, [sp, #180]	; 0xb4
 80038f2:	2d10      	cmp	r5, #16
 80038f4:	9b2c      	ldr	r3, [sp, #176]	; 0xb0
 80038f6:	dce7      	bgt.n	80038c8 <_svfprintf_r+0x480>
 80038f8:	4614      	mov	r4, r2
 80038fa:	3301      	adds	r3, #1
 80038fc:	442c      	add	r4, r5
 80038fe:	2b07      	cmp	r3, #7
 8003900:	932c      	str	r3, [sp, #176]	; 0xb0
 8003902:	942d      	str	r4, [sp, #180]	; 0xb4
 8003904:	f8c7 a000 	str.w	sl, [r7]
 8003908:	607d      	str	r5, [r7, #4]
 800390a:	dd08      	ble.n	800391e <_svfprintf_r+0x4d6>
 800390c:	980e      	ldr	r0, [sp, #56]	; 0x38
 800390e:	aa2b      	add	r2, sp, #172	; 0xac
 8003910:	990b      	ldr	r1, [sp, #44]	; 0x2c
 8003912:	f003 fa3d 	bl	8006d90 <__ssprint_r>
 8003916:	2800      	cmp	r0, #0
 8003918:	f47f ae7b 	bne.w	8003612 <_svfprintf_r+0x1ca>
 800391c:	9c2d      	ldr	r4, [sp, #180]	; 0xb4
 800391e:	9d12      	ldr	r5, [sp, #72]	; 0x48
 8003920:	990d      	ldr	r1, [sp, #52]	; 0x34
 8003922:	9813      	ldr	r0, [sp, #76]	; 0x4c
 8003924:	4281      	cmp	r1, r0
 8003926:	bfac      	ite	ge
 8003928:	186d      	addge	r5, r5, r1
 800392a:	182d      	addlt	r5, r5, r0
 800392c:	9512      	str	r5, [sp, #72]	; 0x48
 800392e:	2c00      	cmp	r4, #0
 8003930:	f040 8335 	bne.w	8003f9e <_svfprintf_r+0xb56>
 8003934:	2300      	movs	r3, #0
 8003936:	af38      	add	r7, sp, #224	; 0xe0
 8003938:	932c      	str	r3, [sp, #176]	; 0xb0
 800393a:	e5bb      	b.n	80034b4 <_svfprintf_r+0x6c>
 800393c:	08e3      	lsrs	r3, r4, #3
 800393e:	08e9      	lsrs	r1, r5, #3
 8003940:	ea43 7345 	orr.w	r3, r3, r5, lsl #29
 8003944:	4690      	mov	r8, r2
 8003946:	460d      	mov	r5, r1
 8003948:	f004 0207 	and.w	r2, r4, #7
 800394c:	461c      	mov	r4, r3
 800394e:	f102 0330 	add.w	r3, r2, #48	; 0x30
 8003952:	ea54 0105 	orrs.w	r1, r4, r5
 8003956:	f108 32ff 	add.w	r2, r8, #4294967295
 800395a:	f888 3000 	strb.w	r3, [r8]
 800395e:	d1ed      	bne.n	800393c <_svfprintf_r+0x4f4>
 8003960:	9c0a      	ldr	r4, [sp, #40]	; 0x28
 8003962:	4641      	mov	r1, r8
 8003964:	07e0      	lsls	r0, r4, #31
 8003966:	f100 84f5 	bmi.w	8004354 <_svfprintf_r+0xf0c>
 800396a:	9d09      	ldr	r5, [sp, #36]	; 0x24
 800396c:	ebc8 0505 	rsb	r5, r8, r5
 8003970:	9510      	str	r5, [sp, #64]	; 0x40
 8003972:	e6a2      	b.n	80036ba <_svfprintf_r+0x272>
 8003974:	9d0a      	ldr	r5, [sp, #40]	; 0x28
 8003976:	9316      	str	r3, [sp, #88]	; 0x58
 8003978:	f015 0320 	ands.w	r3, r5, #32
 800397c:	f000 80b4 	beq.w	8003ae8 <_svfprintf_r+0x6a0>
 8003980:	9c14      	ldr	r4, [sp, #80]	; 0x50
 8003982:	2300      	movs	r3, #0
 8003984:	1de2      	adds	r2, r4, #7
 8003986:	f022 0207 	bic.w	r2, r2, #7
 800398a:	f102 0508 	add.w	r5, r2, #8
 800398e:	9514      	str	r5, [sp, #80]	; 0x50
 8003990:	e9d2 4500 	ldrd	r4, r5, [r2]
 8003994:	e659      	b.n	800364a <_svfprintf_r+0x202>
 8003996:	f899 3000 	ldrb.w	r3, [r9]
 800399a:	f109 0401 	add.w	r4, r9, #1
 800399e:	2b2a      	cmp	r3, #42	; 0x2a
 80039a0:	f000 8791 	beq.w	80048c6 <_svfprintf_r+0x147e>
 80039a4:	f1a3 0130 	sub.w	r1, r3, #48	; 0x30
 80039a8:	2909      	cmp	r1, #9
 80039aa:	bf82      	ittt	hi
 80039ac:	46a1      	movhi	r9, r4
 80039ae:	2400      	movhi	r4, #0
 80039b0:	940c      	strhi	r4, [sp, #48]	; 0x30
 80039b2:	f63f adb4 	bhi.w	800351e <_svfprintf_r+0xd6>
 80039b6:	2000      	movs	r0, #0
 80039b8:	eb00 0080 	add.w	r0, r0, r0, lsl #2
 80039bc:	f814 3b01 	ldrb.w	r3, [r4], #1
 80039c0:	eb01 0040 	add.w	r0, r1, r0, lsl #1
 80039c4:	f1a3 0130 	sub.w	r1, r3, #48	; 0x30
 80039c8:	2909      	cmp	r1, #9
 80039ca:	d9f5      	bls.n	80039b8 <_svfprintf_r+0x570>
 80039cc:	ea40 70e0 	orr.w	r0, r0, r0, asr #31
 80039d0:	46a1      	mov	r9, r4
 80039d2:	900c      	str	r0, [sp, #48]	; 0x30
 80039d4:	e5a3      	b.n	800351e <_svfprintf_r+0xd6>
 80039d6:	9d0a      	ldr	r5, [sp, #40]	; 0x28
 80039d8:	9316      	str	r3, [sp, #88]	; 0x58
 80039da:	f045 0510 	orr.w	r5, r5, #16
 80039de:	950a      	str	r5, [sp, #40]	; 0x28
 80039e0:	9c0a      	ldr	r4, [sp, #40]	; 0x28
 80039e2:	06a3      	lsls	r3, r4, #26
 80039e4:	f53f ae27 	bmi.w	8003636 <_svfprintf_r+0x1ee>
 80039e8:	9d0a      	ldr	r5, [sp, #40]	; 0x28
 80039ea:	06ed      	lsls	r5, r5, #27
 80039ec:	f100 83c4 	bmi.w	8004178 <_svfprintf_r+0xd30>
 80039f0:	9c0a      	ldr	r4, [sp, #40]	; 0x28
 80039f2:	0664      	lsls	r4, r4, #25
 80039f4:	f140 83c0 	bpl.w	8004178 <_svfprintf_r+0xd30>
 80039f8:	9814      	ldr	r0, [sp, #80]	; 0x50
 80039fa:	2500      	movs	r5, #0
 80039fc:	2301      	movs	r3, #1
 80039fe:	3004      	adds	r0, #4
 8003a00:	f830 4c04 	ldrh.w	r4, [r0, #-4]
 8003a04:	9014      	str	r0, [sp, #80]	; 0x50
 8003a06:	e620      	b.n	800364a <_svfprintf_r+0x202>
 8003a08:	9c0a      	ldr	r4, [sp, #40]	; 0x28
 8003a0a:	9316      	str	r3, [sp, #88]	; 0x58
 8003a0c:	f044 0410 	orr.w	r4, r4, #16
 8003a10:	940a      	str	r4, [sp, #40]	; 0x28
 8003a12:	9d0a      	ldr	r5, [sp, #40]	; 0x28
 8003a14:	f88d 208f 	strb.w	r2, [sp, #143]	; 0x8f
 8003a18:	06a9      	lsls	r1, r5, #26
 8003a1a:	f140 8165 	bpl.w	8003ce8 <_svfprintf_r+0x8a0>
 8003a1e:	9c14      	ldr	r4, [sp, #80]	; 0x50
 8003a20:	1de3      	adds	r3, r4, #7
 8003a22:	f023 0307 	bic.w	r3, r3, #7
 8003a26:	f103 0508 	add.w	r5, r3, #8
 8003a2a:	9514      	str	r5, [sp, #80]	; 0x50
 8003a2c:	e9d3 2300 	ldrd	r2, r3, [r3]
 8003a30:	4614      	mov	r4, r2
 8003a32:	461d      	mov	r5, r3
 8003a34:	2a00      	cmp	r2, #0
 8003a36:	f173 0000 	sbcs.w	r0, r3, #0
 8003a3a:	f2c0 83bb 	blt.w	80041b4 <_svfprintf_r+0xd6c>
 8003a3e:	f89d a08f 	ldrb.w	sl, [sp, #143]	; 0x8f
 8003a42:	2301      	movs	r3, #1
 8003a44:	e605      	b.n	8003652 <_svfprintf_r+0x20a>
 8003a46:	bf00      	nop
 8003a48:	080094cc 	stmdaeq	r0, {r2, r3, r6, r7, sl, ip, pc}
 8003a4c:	9c0a      	ldr	r4, [sp, #40]	; 0x28
 8003a4e:	9316      	str	r3, [sp, #88]	; 0x58
 8003a50:	0725      	lsls	r5, r4, #28
 8003a52:	f88d 208f 	strb.w	r2, [sp, #143]	; 0x8f
 8003a56:	f140 84ab 	bpl.w	80043b0 <_svfprintf_r+0xf68>
 8003a5a:	9d14      	ldr	r5, [sp, #80]	; 0x50
 8003a5c:	1deb      	adds	r3, r5, #7
 8003a5e:	f023 0307 	bic.w	r3, r3, #7
 8003a62:	f103 0408 	add.w	r4, r3, #8
 8003a66:	9414      	str	r4, [sp, #80]	; 0x50
 8003a68:	681d      	ldr	r5, [r3, #0]
 8003a6a:	951b      	str	r5, [sp, #108]	; 0x6c
 8003a6c:	685b      	ldr	r3, [r3, #4]
 8003a6e:	931c      	str	r3, [sp, #112]	; 0x70
 8003a70:	981b      	ldr	r0, [sp, #108]	; 0x6c
 8003a72:	991c      	ldr	r1, [sp, #112]	; 0x70
 8003a74:	f003 f802 	bl	8006a7c <__fpclassifyd>
 8003a78:	2801      	cmp	r0, #1
 8003a7a:	981b      	ldr	r0, [sp, #108]	; 0x6c
 8003a7c:	f040 8478 	bne.w	8004370 <_svfprintf_r+0xf28>
 8003a80:	2200      	movs	r2, #0
 8003a82:	2300      	movs	r3, #0
 8003a84:	991c      	ldr	r1, [sp, #112]	; 0x70
 8003a86:	f005 f953 	bl	8008d30 <__aeabi_dcmplt>
 8003a8a:	2800      	cmp	r0, #0
 8003a8c:	f040 864a 	bne.w	8004724 <_svfprintf_r+0x12dc>
 8003a90:	f89d a08f 	ldrb.w	sl, [sp, #143]	; 0x8f
 8003a94:	2503      	movs	r5, #3
 8003a96:	2400      	movs	r4, #0
 8003a98:	f249 6844 	movw	r8, #38468	; 0x9644
 8003a9c:	f249 6340 	movw	r3, #38464	; 0x9640
 8003aa0:	950d      	str	r5, [sp, #52]	; 0x34
 8003aa2:	f6c0 0800 	movt	r8, #2048	; 0x800
 8003aa6:	9d0a      	ldr	r5, [sp, #40]	; 0x28
 8003aa8:	f6c0 0300 	movt	r3, #2048	; 0x800
 8003aac:	940c      	str	r4, [sp, #48]	; 0x30
 8003aae:	9c16      	ldr	r4, [sp, #88]	; 0x58
 8003ab0:	f025 0580 	bic.w	r5, r5, #128	; 0x80
 8003ab4:	950a      	str	r5, [sp, #40]	; 0x28
 8003ab6:	2503      	movs	r5, #3
 8003ab8:	2c47      	cmp	r4, #71	; 0x47
 8003aba:	bfd8      	it	le
 8003abc:	4698      	movle	r8, r3
 8003abe:	9510      	str	r5, [sp, #64]	; 0x40
 8003ac0:	2400      	movs	r4, #0
 8003ac2:	9418      	str	r4, [sp, #96]	; 0x60
 8003ac4:	e601      	b.n	80036ca <_svfprintf_r+0x282>
 8003ac6:	9d0a      	ldr	r5, [sp, #40]	; 0x28
 8003ac8:	f045 0508 	orr.w	r5, r5, #8
 8003acc:	950a      	str	r5, [sp, #40]	; 0x28
 8003ace:	f899 3000 	ldrb.w	r3, [r9]
 8003ad2:	e522      	b.n	800351a <_svfprintf_r+0xd2>
 8003ad4:	9c0a      	ldr	r4, [sp, #40]	; 0x28
 8003ad6:	9316      	str	r3, [sp, #88]	; 0x58
 8003ad8:	f044 0410 	orr.w	r4, r4, #16
 8003adc:	940a      	str	r4, [sp, #40]	; 0x28
 8003ade:	9d0a      	ldr	r5, [sp, #40]	; 0x28
 8003ae0:	f015 0320 	ands.w	r3, r5, #32
 8003ae4:	f47f af4c 	bne.w	8003980 <_svfprintf_r+0x538>
 8003ae8:	9c0a      	ldr	r4, [sp, #40]	; 0x28
 8003aea:	f014 0210 	ands.w	r2, r4, #16
 8003aee:	f040 834c 	bne.w	800418a <_svfprintf_r+0xd42>
 8003af2:	9c0a      	ldr	r4, [sp, #40]	; 0x28
 8003af4:	f014 0340 	ands.w	r3, r4, #64	; 0x40
 8003af8:	f000 8347 	beq.w	800418a <_svfprintf_r+0xd42>
 8003afc:	9814      	ldr	r0, [sp, #80]	; 0x50
 8003afe:	4613      	mov	r3, r2
 8003b00:	2500      	movs	r5, #0
 8003b02:	3004      	adds	r0, #4
 8003b04:	f830 4c04 	ldrh.w	r4, [r0, #-4]
 8003b08:	9014      	str	r0, [sp, #80]	; 0x50
 8003b0a:	e59e      	b.n	800364a <_svfprintf_r+0x202>
 8003b0c:	9d0a      	ldr	r5, [sp, #40]	; 0x28
 8003b0e:	f045 0520 	orr.w	r5, r5, #32
 8003b12:	950a      	str	r5, [sp, #40]	; 0x28
 8003b14:	f899 3000 	ldrb.w	r3, [r9]
 8003b18:	e4ff      	b.n	800351a <_svfprintf_r+0xd2>
 8003b1a:	9c14      	ldr	r4, [sp, #80]	; 0x50
 8003b1c:	2500      	movs	r5, #0
 8003b1e:	9316      	str	r3, [sp, #88]	; 0x58
 8003b20:	3404      	adds	r4, #4
 8003b22:	f88d 508f 	strb.w	r5, [sp, #143]	; 0x8f
 8003b26:	f854 8c04 	ldr.w	r8, [r4, #-4]
 8003b2a:	f1b8 0f00 	cmp.w	r8, #0
 8003b2e:	f000 85d9 	beq.w	80046e4 <_svfprintf_r+0x129c>
 8003b32:	980c      	ldr	r0, [sp, #48]	; 0x30
 8003b34:	2800      	cmp	r0, #0
 8003b36:	4640      	mov	r0, r8
 8003b38:	f2c0 85ab 	blt.w	8004692 <_svfprintf_r+0x124a>
 8003b3c:	4629      	mov	r1, r5
 8003b3e:	9a0c      	ldr	r2, [sp, #48]	; 0x30
 8003b40:	f002 fa60 	bl	8006004 <memchr>
 8003b44:	2800      	cmp	r0, #0
 8003b46:	f000 85ff 	beq.w	8004748 <_svfprintf_r+0x1300>
 8003b4a:	9414      	str	r4, [sp, #80]	; 0x50
 8003b4c:	ebc8 0000 	rsb	r0, r8, r0
 8003b50:	9c0c      	ldr	r4, [sp, #48]	; 0x30
 8003b52:	950c      	str	r5, [sp, #48]	; 0x30
 8003b54:	42a0      	cmp	r0, r4
 8003b56:	bfb8      	it	lt
 8003b58:	4604      	movlt	r4, r0
 8003b5a:	9410      	str	r4, [sp, #64]	; 0x40
 8003b5c:	ea24 75e4 	bic.w	r5, r4, r4, asr #31
 8003b60:	9c0c      	ldr	r4, [sp, #48]	; 0x30
 8003b62:	950d      	str	r5, [sp, #52]	; 0x34
 8003b64:	f89d a08f 	ldrb.w	sl, [sp, #143]	; 0x8f
 8003b68:	9418      	str	r4, [sp, #96]	; 0x60
 8003b6a:	e5ae      	b.n	80036ca <_svfprintf_r+0x282>
 8003b6c:	9d0a      	ldr	r5, [sp, #40]	; 0x28
 8003b6e:	f249 6464 	movw	r4, #38500	; 0x9664
 8003b72:	f6c0 0400 	movt	r4, #2048	; 0x800
 8003b76:	9316      	str	r3, [sp, #88]	; 0x58
 8003b78:	06a8      	lsls	r0, r5, #26
 8003b7a:	f88d 208f 	strb.w	r2, [sp, #143]	; 0x8f
 8003b7e:	9419      	str	r4, [sp, #100]	; 0x64
 8003b80:	f140 809c 	bpl.w	8003cbc <_svfprintf_r+0x874>
 8003b84:	9c14      	ldr	r4, [sp, #80]	; 0x50
 8003b86:	1de3      	adds	r3, r4, #7
 8003b88:	f023 0307 	bic.w	r3, r3, #7
 8003b8c:	f103 0508 	add.w	r5, r3, #8
 8003b90:	9514      	str	r5, [sp, #80]	; 0x50
 8003b92:	e9d3 4500 	ldrd	r4, r5, [r3]
 8003b96:	980a      	ldr	r0, [sp, #40]	; 0x28
 8003b98:	07c3      	lsls	r3, r0, #31
 8003b9a:	f140 8227 	bpl.w	8003fec <_svfprintf_r+0xba4>
 8003b9e:	ea54 0105 	orrs.w	r1, r4, r5
 8003ba2:	f000 8223 	beq.w	8003fec <_svfprintf_r+0xba4>
 8003ba6:	9a16      	ldr	r2, [sp, #88]	; 0x58
 8003ba8:	2330      	movs	r3, #48	; 0x30
 8003baa:	f040 0002 	orr.w	r0, r0, #2
 8003bae:	f88d 3090 	strb.w	r3, [sp, #144]	; 0x90
 8003bb2:	900a      	str	r0, [sp, #40]	; 0x28
 8003bb4:	2302      	movs	r3, #2
 8003bb6:	f88d 2091 	strb.w	r2, [sp, #145]	; 0x91
 8003bba:	e546      	b.n	800364a <_svfprintf_r+0x202>
 8003bbc:	f899 3000 	ldrb.w	r3, [r9]
 8003bc0:	222b      	movs	r2, #43	; 0x2b
 8003bc2:	e4aa      	b.n	800351a <_svfprintf_r+0xd2>
 8003bc4:	f899 3000 	ldrb.w	r3, [r9]
 8003bc8:	4649      	mov	r1, r9
 8003bca:	2b6c      	cmp	r3, #108	; 0x6c
 8003bcc:	bf05      	ittet	eq
 8003bce:	f109 0901 	addeq.w	r9, r9, #1
 8003bd2:	9d0a      	ldreq	r5, [sp, #40]	; 0x28
 8003bd4:	9c0a      	ldrne	r4, [sp, #40]	; 0x28
 8003bd6:	f045 0520 	orreq.w	r5, r5, #32
 8003bda:	bf0b      	itete	eq
 8003bdc:	784b      	ldrbeq	r3, [r1, #1]
 8003bde:	f044 0410 	orrne.w	r4, r4, #16
 8003be2:	950a      	streq	r5, [sp, #40]	; 0x28
 8003be4:	940a      	strne	r4, [sp, #40]	; 0x28
 8003be6:	e498      	b.n	800351a <_svfprintf_r+0xd2>
 8003be8:	9d0a      	ldr	r5, [sp, #40]	; 0x28
 8003bea:	f88d 208f 	strb.w	r2, [sp, #143]	; 0x8f
 8003bee:	06a9      	lsls	r1, r5, #26
 8003bf0:	f140 83eb 	bpl.w	80043ca <_svfprintf_r+0xf82>
 8003bf4:	9c14      	ldr	r4, [sp, #80]	; 0x50
 8003bf6:	6821      	ldr	r1, [r4, #0]
 8003bf8:	9c12      	ldr	r4, [sp, #72]	; 0x48
 8003bfa:	4622      	mov	r2, r4
 8003bfc:	17e5      	asrs	r5, r4, #31
 8003bfe:	462b      	mov	r3, r5
 8003c00:	9d14      	ldr	r5, [sp, #80]	; 0x50
 8003c02:	e9c1 2300 	strd	r2, r3, [r1]
 8003c06:	3504      	adds	r5, #4
 8003c08:	9514      	str	r5, [sp, #80]	; 0x50
 8003c0a:	e453      	b.n	80034b4 <_svfprintf_r+0x6c>
 8003c0c:	9a14      	ldr	r2, [sp, #80]	; 0x50
 8003c0e:	f249 6064 	movw	r0, #38500	; 0x9664
 8003c12:	9d0a      	ldr	r5, [sp, #40]	; 0x28
 8003c14:	2378      	movs	r3, #120	; 0x78
 8003c16:	f6c0 0000 	movt	r0, #2048	; 0x800
 8003c1a:	f88d 3091 	strb.w	r3, [sp, #145]	; 0x91
 8003c1e:	f045 0502 	orr.w	r5, r5, #2
 8003c22:	9316      	str	r3, [sp, #88]	; 0x58
 8003c24:	950a      	str	r5, [sp, #40]	; 0x28
 8003c26:	2330      	movs	r3, #48	; 0x30
 8003c28:	1d15      	adds	r5, r2, #4
 8003c2a:	f88d 3090 	strb.w	r3, [sp, #144]	; 0x90
 8003c2e:	9514      	str	r5, [sp, #80]	; 0x50
 8003c30:	2302      	movs	r3, #2
 8003c32:	6814      	ldr	r4, [r2, #0]
 8003c34:	2500      	movs	r5, #0
 8003c36:	9019      	str	r0, [sp, #100]	; 0x64
 8003c38:	e507      	b.n	800364a <_svfprintf_r+0x202>
 8003c3a:	9c0a      	ldr	r4, [sp, #40]	; 0x28
 8003c3c:	f044 0440 	orr.w	r4, r4, #64	; 0x40
 8003c40:	940a      	str	r4, [sp, #40]	; 0x28
 8003c42:	f899 3000 	ldrb.w	r3, [r9]
 8003c46:	e468      	b.n	800351a <_svfprintf_r+0xd2>
 8003c48:	f899 3000 	ldrb.w	r3, [r9]
 8003c4c:	2a00      	cmp	r2, #0
 8003c4e:	f47f ac64 	bne.w	800351a <_svfprintf_r+0xd2>
 8003c52:	2220      	movs	r2, #32
 8003c54:	e461      	b.n	800351a <_svfprintf_r+0xd2>
 8003c56:	9d0a      	ldr	r5, [sp, #40]	; 0x28
 8003c58:	f045 0501 	orr.w	r5, r5, #1
 8003c5c:	950a      	str	r5, [sp, #40]	; 0x28
 8003c5e:	f899 3000 	ldrb.w	r3, [r9]
 8003c62:	e45a      	b.n	800351a <_svfprintf_r+0xd2>
 8003c64:	9c14      	ldr	r4, [sp, #80]	; 0x50
 8003c66:	9d14      	ldr	r5, [sp, #80]	; 0x50
 8003c68:	6824      	ldr	r4, [r4, #0]
 8003c6a:	1d2b      	adds	r3, r5, #4
 8003c6c:	2c00      	cmp	r4, #0
 8003c6e:	9413      	str	r4, [sp, #76]	; 0x4c
 8003c70:	f6ff acb5 	blt.w	80035de <_svfprintf_r+0x196>
 8003c74:	9314      	str	r3, [sp, #80]	; 0x50
 8003c76:	f899 3000 	ldrb.w	r3, [r9]
 8003c7a:	e44e      	b.n	800351a <_svfprintf_r+0xd2>
 8003c7c:	9a14      	ldr	r2, [sp, #80]	; 0x50
 8003c7e:	2401      	movs	r4, #1
 8003c80:	9d14      	ldr	r5, [sp, #80]	; 0x50
 8003c82:	f10d 08b8 	add.w	r8, sp, #184	; 0xb8
 8003c86:	9316      	str	r3, [sp, #88]	; 0x58
 8003c88:	2300      	movs	r3, #0
 8003c8a:	6812      	ldr	r2, [r2, #0]
 8003c8c:	3504      	adds	r5, #4
 8003c8e:	469a      	mov	sl, r3
 8003c90:	940d      	str	r4, [sp, #52]	; 0x34
 8003c92:	9514      	str	r5, [sp, #80]	; 0x50
 8003c94:	f88d 308f 	strb.w	r3, [sp, #143]	; 0x8f
 8003c98:	930c      	str	r3, [sp, #48]	; 0x30
 8003c9a:	9318      	str	r3, [sp, #96]	; 0x60
 8003c9c:	9410      	str	r4, [sp, #64]	; 0x40
 8003c9e:	f88d 20b8 	strb.w	r2, [sp, #184]	; 0xb8
 8003ca2:	e518      	b.n	80036d6 <_svfprintf_r+0x28e>
 8003ca4:	9d0a      	ldr	r5, [sp, #40]	; 0x28
 8003ca6:	f249 6450 	movw	r4, #38480	; 0x9650
 8003caa:	f6c0 0400 	movt	r4, #2048	; 0x800
 8003cae:	9316      	str	r3, [sp, #88]	; 0x58
 8003cb0:	06a8      	lsls	r0, r5, #26
 8003cb2:	f88d 208f 	strb.w	r2, [sp, #143]	; 0x8f
 8003cb6:	9419      	str	r4, [sp, #100]	; 0x64
 8003cb8:	f53f af64 	bmi.w	8003b84 <_svfprintf_r+0x73c>
 8003cbc:	9c0a      	ldr	r4, [sp, #40]	; 0x28
 8003cbe:	06e1      	lsls	r1, r4, #27
 8003cc0:	f100 8253 	bmi.w	800416a <_svfprintf_r+0xd22>
 8003cc4:	9c0a      	ldr	r4, [sp, #40]	; 0x28
 8003cc6:	0662      	lsls	r2, r4, #25
 8003cc8:	f140 824f 	bpl.w	800416a <_svfprintf_r+0xd22>
 8003ccc:	9814      	ldr	r0, [sp, #80]	; 0x50
 8003cce:	2500      	movs	r5, #0
 8003cd0:	3004      	adds	r0, #4
 8003cd2:	f830 4c04 	ldrh.w	r4, [r0, #-4]
 8003cd6:	9014      	str	r0, [sp, #80]	; 0x50
 8003cd8:	e75d      	b.n	8003b96 <_svfprintf_r+0x74e>
 8003cda:	9d0a      	ldr	r5, [sp, #40]	; 0x28
 8003cdc:	9316      	str	r3, [sp, #88]	; 0x58
 8003cde:	06a9      	lsls	r1, r5, #26
 8003ce0:	f88d 208f 	strb.w	r2, [sp, #143]	; 0x8f
 8003ce4:	f53f ae9b 	bmi.w	8003a1e <_svfprintf_r+0x5d6>
 8003ce8:	9c0a      	ldr	r4, [sp, #40]	; 0x28
 8003cea:	06e2      	lsls	r2, r4, #27
 8003cec:	f100 8255 	bmi.w	800419a <_svfprintf_r+0xd52>
 8003cf0:	9c0a      	ldr	r4, [sp, #40]	; 0x28
 8003cf2:	0663      	lsls	r3, r4, #25
 8003cf4:	f140 8251 	bpl.w	800419a <_svfprintf_r+0xd52>
 8003cf8:	9814      	ldr	r0, [sp, #80]	; 0x50
 8003cfa:	3004      	adds	r0, #4
 8003cfc:	f930 4c04 	ldrsh.w	r4, [r0, #-4]
 8003d00:	9014      	str	r0, [sp, #80]	; 0x50
 8003d02:	4622      	mov	r2, r4
 8003d04:	17e5      	asrs	r5, r4, #31
 8003d06:	462b      	mov	r3, r5
 8003d08:	e694      	b.n	8003a34 <_svfprintf_r+0x5ec>
 8003d0a:	9d0a      	ldr	r5, [sp, #40]	; 0x28
 8003d0c:	f045 0580 	orr.w	r5, r5, #128	; 0x80
 8003d10:	950a      	str	r5, [sp, #40]	; 0x28
 8003d12:	f899 3000 	ldrb.w	r3, [r9]
 8003d16:	e400      	b.n	800351a <_svfprintf_r+0xd2>
 8003d18:	2400      	movs	r4, #0
 8003d1a:	f1a3 0130 	sub.w	r1, r3, #48	; 0x30
 8003d1e:	4620      	mov	r0, r4
 8003d20:	9413      	str	r4, [sp, #76]	; 0x4c
 8003d22:	eb00 0080 	add.w	r0, r0, r0, lsl #2
 8003d26:	f819 3b01 	ldrb.w	r3, [r9], #1
 8003d2a:	eb01 0040 	add.w	r0, r1, r0, lsl #1
 8003d2e:	f1a3 0130 	sub.w	r1, r3, #48	; 0x30
 8003d32:	2909      	cmp	r1, #9
 8003d34:	d9f5      	bls.n	8003d22 <_svfprintf_r+0x8da>
 8003d36:	9013      	str	r0, [sp, #76]	; 0x4c
 8003d38:	f7ff bbf1 	b.w	800351e <_svfprintf_r+0xd6>
 8003d3c:	9316      	str	r3, [sp, #88]	; 0x58
 8003d3e:	f88d 208f 	strb.w	r2, [sp, #143]	; 0x8f
 8003d42:	2b00      	cmp	r3, #0
 8003d44:	f43f ac5e 	beq.w	8003604 <_svfprintf_r+0x1bc>
 8003d48:	9c16      	ldr	r4, [sp, #88]	; 0x58
 8003d4a:	2300      	movs	r3, #0
 8003d4c:	2501      	movs	r5, #1
 8003d4e:	469a      	mov	sl, r3
 8003d50:	950d      	str	r5, [sp, #52]	; 0x34
 8003d52:	f10d 08b8 	add.w	r8, sp, #184	; 0xb8
 8003d56:	f88d 40b8 	strb.w	r4, [sp, #184]	; 0xb8
 8003d5a:	f88d 308f 	strb.w	r3, [sp, #143]	; 0x8f
 8003d5e:	930c      	str	r3, [sp, #48]	; 0x30
 8003d60:	9318      	str	r3, [sp, #96]	; 0x60
 8003d62:	9510      	str	r5, [sp, #64]	; 0x40
 8003d64:	e4b7      	b.n	80036d6 <_svfprintf_r+0x28e>
 8003d66:	980e      	ldr	r0, [sp, #56]	; 0x38
 8003d68:	aa2b      	add	r2, sp, #172	; 0xac
 8003d6a:	990b      	ldr	r1, [sp, #44]	; 0x2c
 8003d6c:	f003 f810 	bl	8006d90 <__ssprint_r>
 8003d70:	2800      	cmp	r0, #0
 8003d72:	f47f ac4e 	bne.w	8003612 <_svfprintf_r+0x1ca>
 8003d76:	f89d a08f 	ldrb.w	sl, [sp, #143]	; 0x8f
 8003d7a:	af38      	add	r7, sp, #224	; 0xe0
 8003d7c:	9c2d      	ldr	r4, [sp, #180]	; 0xb4
 8003d7e:	e509      	b.n	8003794 <_svfprintf_r+0x34c>
 8003d80:	9d16      	ldr	r5, [sp, #88]	; 0x58
 8003d82:	2d65      	cmp	r5, #101	; 0x65
 8003d84:	f340 80b9 	ble.w	8003efa <_svfprintf_r+0xab2>
 8003d88:	981b      	ldr	r0, [sp, #108]	; 0x6c
 8003d8a:	2200      	movs	r2, #0
 8003d8c:	2300      	movs	r3, #0
 8003d8e:	991c      	ldr	r1, [sp, #112]	; 0x70
 8003d90:	f004 ffc4 	bl	8008d1c <__aeabi_dcmpeq>
 8003d94:	2800      	cmp	r0, #0
 8003d96:	f000 812c 	beq.w	8003ff2 <_svfprintf_r+0xbaa>
 8003d9a:	9b2c      	ldr	r3, [sp, #176]	; 0xb0
 8003d9c:	2201      	movs	r2, #1
 8003d9e:	9d17      	ldr	r5, [sp, #92]	; 0x5c
 8003da0:	3401      	adds	r4, #1
 8003da2:	4413      	add	r3, r2
 8003da4:	607a      	str	r2, [r7, #4]
 8003da6:	2b07      	cmp	r3, #7
 8003da8:	942d      	str	r4, [sp, #180]	; 0xb4
 8003daa:	603d      	str	r5, [r7, #0]
 8003dac:	bfd8      	it	le
 8003dae:	3708      	addle	r7, #8
 8003db0:	932c      	str	r3, [sp, #176]	; 0xb0
 8003db2:	f300 8316 	bgt.w	80043e2 <_svfprintf_r+0xf9a>
 8003db6:	9b25      	ldr	r3, [sp, #148]	; 0x94
 8003db8:	9d11      	ldr	r5, [sp, #68]	; 0x44
 8003dba:	42ab      	cmp	r3, r5
 8003dbc:	db03      	blt.n	8003dc6 <_svfprintf_r+0x97e>
 8003dbe:	9d0a      	ldr	r5, [sp, #40]	; 0x28
 8003dc0:	07ed      	lsls	r5, r5, #31
 8003dc2:	f57f ad68 	bpl.w	8003896 <_svfprintf_r+0x44e>
 8003dc6:	9d1d      	ldr	r5, [sp, #116]	; 0x74
 8003dc8:	9b2c      	ldr	r3, [sp, #176]	; 0xb0
 8003dca:	442c      	add	r4, r5
 8003dcc:	9d1a      	ldr	r5, [sp, #104]	; 0x68
 8003dce:	3301      	adds	r3, #1
 8003dd0:	942d      	str	r4, [sp, #180]	; 0xb4
 8003dd2:	2b07      	cmp	r3, #7
 8003dd4:	932c      	str	r3, [sp, #176]	; 0xb0
 8003dd6:	603d      	str	r5, [r7, #0]
 8003dd8:	9d1d      	ldr	r5, [sp, #116]	; 0x74
 8003dda:	607d      	str	r5, [r7, #4]
 8003ddc:	bfd8      	it	le
 8003dde:	3708      	addle	r7, #8
 8003de0:	f300 835e 	bgt.w	80044a0 <_svfprintf_r+0x1058>
 8003de4:	9d11      	ldr	r5, [sp, #68]	; 0x44
 8003de6:	f105 38ff 	add.w	r8, r5, #4294967295
 8003dea:	f1b8 0f00 	cmp.w	r8, #0
 8003dee:	f77f ad52 	ble.w	8003896 <_svfprintf_r+0x44e>
 8003df2:	f1b8 0f10 	cmp.w	r8, #16
 8003df6:	9b2c      	ldr	r3, [sp, #176]	; 0xb0
 8003df8:	f340 81aa 	ble.w	8004150 <_svfprintf_r+0xd08>
 8003dfc:	4dac      	ldr	r5, [pc, #688]	; (80040b0 <_svfprintf_r+0xc68>)
 8003dfe:	f04f 0a10 	mov.w	sl, #16
 8003e02:	f8dd b02c 	ldr.w	fp, [sp, #44]	; 0x2c
 8003e06:	950f      	str	r5, [sp, #60]	; 0x3c
 8003e08:	9d0e      	ldr	r5, [sp, #56]	; 0x38
 8003e0a:	e005      	b.n	8003e18 <_svfprintf_r+0x9d0>
 8003e0c:	f1a8 0810 	sub.w	r8, r8, #16
 8003e10:	f1b8 0f10 	cmp.w	r8, #16
 8003e14:	f340 819e 	ble.w	8004154 <_svfprintf_r+0xd0c>
 8003e18:	3301      	adds	r3, #1
 8003e1a:	3410      	adds	r4, #16
 8003e1c:	2b07      	cmp	r3, #7
 8003e1e:	e887 0440 	stmia.w	r7, {r6, sl}
 8003e22:	932c      	str	r3, [sp, #176]	; 0xb0
 8003e24:	f107 0708 	add.w	r7, r7, #8
 8003e28:	942d      	str	r4, [sp, #180]	; 0xb4
 8003e2a:	ddef      	ble.n	8003e0c <_svfprintf_r+0x9c4>
 8003e2c:	4628      	mov	r0, r5
 8003e2e:	4659      	mov	r1, fp
 8003e30:	aa2b      	add	r2, sp, #172	; 0xac
 8003e32:	af38      	add	r7, sp, #224	; 0xe0
 8003e34:	f002 ffac 	bl	8006d90 <__ssprint_r>
 8003e38:	2800      	cmp	r0, #0
 8003e3a:	f47f abea 	bne.w	8003612 <_svfprintf_r+0x1ca>
 8003e3e:	9c2d      	ldr	r4, [sp, #180]	; 0xb4
 8003e40:	9b2c      	ldr	r3, [sp, #176]	; 0xb0
 8003e42:	e7e3      	b.n	8003e0c <_svfprintf_r+0x9c4>
 8003e44:	2b00      	cmp	r3, #0
 8003e46:	f040 80b4 	bne.w	8003fb2 <_svfprintf_r+0xb6a>
 8003e4a:	9c0a      	ldr	r4, [sp, #40]	; 0x28
 8003e4c:	07e2      	lsls	r2, r4, #31
 8003e4e:	bf5c      	itt	pl
 8003e50:	9310      	strpl	r3, [sp, #64]	; 0x40
 8003e52:	f10d 08e0 	addpl.w	r8, sp, #224	; 0xe0
 8003e56:	f57f ac30 	bpl.w	80036ba <_svfprintf_r+0x272>
 8003e5a:	9d21      	ldr	r5, [sp, #132]	; 0x84
 8003e5c:	2330      	movs	r3, #48	; 0x30
 8003e5e:	f10d 08df 	add.w	r8, sp, #223	; 0xdf
 8003e62:	f88d 30df 	strb.w	r3, [sp, #223]	; 0xdf
 8003e66:	9510      	str	r5, [sp, #64]	; 0x40
 8003e68:	e427      	b.n	80036ba <_svfprintf_r+0x272>
 8003e6a:	9813      	ldr	r0, [sp, #76]	; 0x4c
 8003e6c:	990d      	ldr	r1, [sp, #52]	; 0x34
 8003e6e:	1a45      	subs	r5, r0, r1
 8003e70:	2d00      	cmp	r5, #0
 8003e72:	f77f acb4 	ble.w	80037de <_svfprintf_r+0x396>
 8003e76:	2d10      	cmp	r5, #16
 8003e78:	9b2c      	ldr	r3, [sp, #176]	; 0xb0
 8003e7a:	bfdc      	itt	le
 8003e7c:	4a8c      	ldrle	r2, [pc, #560]	; (80040b0 <_svfprintf_r+0xc68>)
 8003e7e:	920f      	strle	r2, [sp, #60]	; 0x3c
 8003e80:	dd24      	ble.n	8003ecc <_svfprintf_r+0xa84>
 8003e82:	488b      	ldr	r0, [pc, #556]	; (80040b0 <_svfprintf_r+0xc68>)
 8003e84:	4622      	mov	r2, r4
 8003e86:	f04f 0b10 	mov.w	fp, #16
 8003e8a:	f8dd a038 	ldr.w	sl, [sp, #56]	; 0x38
 8003e8e:	9c0b      	ldr	r4, [sp, #44]	; 0x2c
 8003e90:	900f      	str	r0, [sp, #60]	; 0x3c
 8003e92:	e002      	b.n	8003e9a <_svfprintf_r+0xa52>
 8003e94:	3d10      	subs	r5, #16
 8003e96:	2d10      	cmp	r5, #16
 8003e98:	dd17      	ble.n	8003eca <_svfprintf_r+0xa82>
 8003e9a:	3301      	adds	r3, #1
 8003e9c:	3210      	adds	r2, #16
 8003e9e:	2b07      	cmp	r3, #7
 8003ea0:	e887 0840 	stmia.w	r7, {r6, fp}
 8003ea4:	932c      	str	r3, [sp, #176]	; 0xb0
 8003ea6:	f107 0708 	add.w	r7, r7, #8
 8003eaa:	922d      	str	r2, [sp, #180]	; 0xb4
 8003eac:	ddf2      	ble.n	8003e94 <_svfprintf_r+0xa4c>
 8003eae:	4650      	mov	r0, sl
 8003eb0:	4621      	mov	r1, r4
 8003eb2:	aa2b      	add	r2, sp, #172	; 0xac
 8003eb4:	af38      	add	r7, sp, #224	; 0xe0
 8003eb6:	f002 ff6b 	bl	8006d90 <__ssprint_r>
 8003eba:	2800      	cmp	r0, #0
 8003ebc:	f47f aba9 	bne.w	8003612 <_svfprintf_r+0x1ca>
 8003ec0:	3d10      	subs	r5, #16
 8003ec2:	9a2d      	ldr	r2, [sp, #180]	; 0xb4
 8003ec4:	2d10      	cmp	r5, #16
 8003ec6:	9b2c      	ldr	r3, [sp, #176]	; 0xb0
 8003ec8:	dce7      	bgt.n	8003e9a <_svfprintf_r+0xa52>
 8003eca:	4614      	mov	r4, r2
 8003ecc:	3301      	adds	r3, #1
 8003ece:	990f      	ldr	r1, [sp, #60]	; 0x3c
 8003ed0:	2b07      	cmp	r3, #7
 8003ed2:	442c      	add	r4, r5
 8003ed4:	932c      	str	r3, [sp, #176]	; 0xb0
 8003ed6:	e887 0022 	stmia.w	r7, {r1, r5}
 8003eda:	bfd8      	it	le
 8003edc:	3708      	addle	r7, #8
 8003ede:	942d      	str	r4, [sp, #180]	; 0xb4
 8003ee0:	f77f ac7d 	ble.w	80037de <_svfprintf_r+0x396>
 8003ee4:	980e      	ldr	r0, [sp, #56]	; 0x38
 8003ee6:	aa2b      	add	r2, sp, #172	; 0xac
 8003ee8:	990b      	ldr	r1, [sp, #44]	; 0x2c
 8003eea:	f002 ff51 	bl	8006d90 <__ssprint_r>
 8003eee:	2800      	cmp	r0, #0
 8003ef0:	f47f ab8f 	bne.w	8003612 <_svfprintf_r+0x1ca>
 8003ef4:	9c2d      	ldr	r4, [sp, #180]	; 0xb4
 8003ef6:	af38      	add	r7, sp, #224	; 0xe0
 8003ef8:	e471      	b.n	80037de <_svfprintf_r+0x396>
 8003efa:	9d11      	ldr	r5, [sp, #68]	; 0x44
 8003efc:	9b2c      	ldr	r3, [sp, #176]	; 0xb0
 8003efe:	2d01      	cmp	r5, #1
 8003f00:	f340 81e2 	ble.w	80042c8 <_svfprintf_r+0xe80>
 8003f04:	2101      	movs	r1, #1
 8003f06:	1c62      	adds	r2, r4, #1
 8003f08:	440b      	add	r3, r1
 8003f0a:	f8c7 8000 	str.w	r8, [r7]
 8003f0e:	2b07      	cmp	r3, #7
 8003f10:	6079      	str	r1, [r7, #4]
 8003f12:	922d      	str	r2, [sp, #180]	; 0xb4
 8003f14:	bfd8      	it	le
 8003f16:	3708      	addle	r7, #8
 8003f18:	932c      	str	r3, [sp, #176]	; 0xb0
 8003f1a:	f300 81f4 	bgt.w	8004306 <_svfprintf_r+0xebe>
 8003f1e:	9d1a      	ldr	r5, [sp, #104]	; 0x68
 8003f20:	1c5c      	adds	r4, r3, #1
 8003f22:	f8dd a074 	ldr.w	sl, [sp, #116]	; 0x74
 8003f26:	2c07      	cmp	r4, #7
 8003f28:	942c      	str	r4, [sp, #176]	; 0xb0
 8003f2a:	603d      	str	r5, [r7, #0]
 8003f2c:	4492      	add	sl, r2
 8003f2e:	9d1d      	ldr	r5, [sp, #116]	; 0x74
 8003f30:	f8cd a0b4 	str.w	sl, [sp, #180]	; 0xb4
 8003f34:	607d      	str	r5, [r7, #4]
 8003f36:	bfd8      	it	le
 8003f38:	3708      	addle	r7, #8
 8003f3a:	f300 81d7 	bgt.w	80042ec <_svfprintf_r+0xea4>
 8003f3e:	981b      	ldr	r0, [sp, #108]	; 0x6c
 8003f40:	2200      	movs	r2, #0
 8003f42:	2300      	movs	r3, #0
 8003f44:	991c      	ldr	r1, [sp, #112]	; 0x70
 8003f46:	f004 fee9 	bl	8008d1c <__aeabi_dcmpeq>
 8003f4a:	2800      	cmp	r0, #0
 8003f4c:	f040 80b2 	bne.w	80040b4 <_svfprintf_r+0xc6c>
 8003f50:	3401      	adds	r4, #1
 8003f52:	9d11      	ldr	r5, [sp, #68]	; 0x44
 8003f54:	2c07      	cmp	r4, #7
 8003f56:	f108 0201 	add.w	r2, r8, #1
 8003f5a:	f105 33ff 	add.w	r3, r5, #4294967295
 8003f5e:	942c      	str	r4, [sp, #176]	; 0xb0
 8003f60:	449a      	add	sl, r3
 8003f62:	603a      	str	r2, [r7, #0]
 8003f64:	f8cd a0b4 	str.w	sl, [sp, #180]	; 0xb4
 8003f68:	607b      	str	r3, [r7, #4]
 8003f6a:	f300 80e4 	bgt.w	8004136 <_svfprintf_r+0xcee>
 8003f6e:	3708      	adds	r7, #8
 8003f70:	1c63      	adds	r3, r4, #1
 8003f72:	9d1e      	ldr	r5, [sp, #120]	; 0x78
 8003f74:	9c1e      	ldr	r4, [sp, #120]	; 0x78
 8003f76:	2b07      	cmp	r3, #7
 8003f78:	aa27      	add	r2, sp, #156	; 0x9c
 8003f7a:	932c      	str	r3, [sp, #176]	; 0xb0
 8003f7c:	4454      	add	r4, sl
 8003f7e:	e887 0024 	stmia.w	r7, {r2, r5}
 8003f82:	942d      	str	r4, [sp, #180]	; 0xb4
 8003f84:	f77f ac86 	ble.w	8003894 <_svfprintf_r+0x44c>
 8003f88:	980e      	ldr	r0, [sp, #56]	; 0x38
 8003f8a:	aa2b      	add	r2, sp, #172	; 0xac
 8003f8c:	990b      	ldr	r1, [sp, #44]	; 0x2c
 8003f8e:	f002 feff 	bl	8006d90 <__ssprint_r>
 8003f92:	2800      	cmp	r0, #0
 8003f94:	f47f ab3d 	bne.w	8003612 <_svfprintf_r+0x1ca>
 8003f98:	9c2d      	ldr	r4, [sp, #180]	; 0xb4
 8003f9a:	af38      	add	r7, sp, #224	; 0xe0
 8003f9c:	e47b      	b.n	8003896 <_svfprintf_r+0x44e>
 8003f9e:	980e      	ldr	r0, [sp, #56]	; 0x38
 8003fa0:	aa2b      	add	r2, sp, #172	; 0xac
 8003fa2:	990b      	ldr	r1, [sp, #44]	; 0x2c
 8003fa4:	f002 fef4 	bl	8006d90 <__ssprint_r>
 8003fa8:	2800      	cmp	r0, #0
 8003faa:	f43f acc3 	beq.w	8003934 <_svfprintf_r+0x4ec>
 8003fae:	f7ff bb30 	b.w	8003612 <_svfprintf_r+0x1ca>
 8003fb2:	9210      	str	r2, [sp, #64]	; 0x40
 8003fb4:	f10d 08e0 	add.w	r8, sp, #224	; 0xe0
 8003fb8:	f7ff bb7f 	b.w	80036ba <_svfprintf_r+0x272>
 8003fbc:	980e      	ldr	r0, [sp, #56]	; 0x38
 8003fbe:	aa2b      	add	r2, sp, #172	; 0xac
 8003fc0:	990b      	ldr	r1, [sp, #44]	; 0x2c
 8003fc2:	f002 fee5 	bl	8006d90 <__ssprint_r>
 8003fc6:	2800      	cmp	r0, #0
 8003fc8:	f47f ab23 	bne.w	8003612 <_svfprintf_r+0x1ca>
 8003fcc:	9c2d      	ldr	r4, [sp, #180]	; 0xb4
 8003fce:	af38      	add	r7, sp, #224	; 0xe0
 8003fd0:	f7ff bbf2 	b.w	80037b8 <_svfprintf_r+0x370>
 8003fd4:	980e      	ldr	r0, [sp, #56]	; 0x38
 8003fd6:	aa2b      	add	r2, sp, #172	; 0xac
 8003fd8:	990b      	ldr	r1, [sp, #44]	; 0x2c
 8003fda:	f002 fed9 	bl	8006d90 <__ssprint_r>
 8003fde:	2800      	cmp	r0, #0
 8003fe0:	f47f ab17 	bne.w	8003612 <_svfprintf_r+0x1ca>
 8003fe4:	9c2d      	ldr	r4, [sp, #180]	; 0xb4
 8003fe6:	af38      	add	r7, sp, #224	; 0xe0
 8003fe8:	f7ff bbf6 	b.w	80037d8 <_svfprintf_r+0x390>
 8003fec:	2302      	movs	r3, #2
 8003fee:	f7ff bb2c 	b.w	800364a <_svfprintf_r+0x202>
 8003ff2:	9b25      	ldr	r3, [sp, #148]	; 0x94
 8003ff4:	2b00      	cmp	r3, #0
 8003ff6:	f340 81ff 	ble.w	80043f8 <_svfprintf_r+0xfb0>
 8003ffa:	9d11      	ldr	r5, [sp, #68]	; 0x44
 8003ffc:	9818      	ldr	r0, [sp, #96]	; 0x60
 8003ffe:	9911      	ldr	r1, [sp, #68]	; 0x44
 8004000:	4285      	cmp	r5, r0
 8004002:	bfa8      	it	ge
 8004004:	4605      	movge	r5, r0
 8004006:	2d00      	cmp	r5, #0
 8004008:	4441      	add	r1, r8
 800400a:	910c      	str	r1, [sp, #48]	; 0x30
 800400c:	dd0c      	ble.n	8004028 <_svfprintf_r+0xbe0>
 800400e:	9b2c      	ldr	r3, [sp, #176]	; 0xb0
 8004010:	442c      	add	r4, r5
 8004012:	f8c7 8000 	str.w	r8, [r7]
 8004016:	3301      	adds	r3, #1
 8004018:	607d      	str	r5, [r7, #4]
 800401a:	2b07      	cmp	r3, #7
 800401c:	942d      	str	r4, [sp, #180]	; 0xb4
 800401e:	932c      	str	r3, [sp, #176]	; 0xb0
 8004020:	bfd8      	it	le
 8004022:	3708      	addle	r7, #8
 8004024:	f300 8343 	bgt.w	80046ae <_svfprintf_r+0x1266>
 8004028:	9a18      	ldr	r2, [sp, #96]	; 0x60
 800402a:	ea25 75e5 	bic.w	r5, r5, r5, asr #31
 800402e:	ebc5 0a02 	rsb	sl, r5, r2
 8004032:	f1ba 0f00 	cmp.w	sl, #0
 8004036:	f340 80dd 	ble.w	80041f4 <_svfprintf_r+0xdac>
 800403a:	f1ba 0f10 	cmp.w	sl, #16
 800403e:	9b2c      	ldr	r3, [sp, #176]	; 0xb0
 8004040:	bfdc      	itt	le
 8004042:	4d1b      	ldrle	r5, [pc, #108]	; (80040b0 <_svfprintf_r+0xc68>)
 8004044:	950f      	strle	r5, [sp, #60]	; 0x3c
 8004046:	f340 80c0 	ble.w	80041ca <_svfprintf_r+0xd82>
 800404a:	4d19      	ldr	r5, [pc, #100]	; (80040b0 <_svfprintf_r+0xc68>)
 800404c:	4622      	mov	r2, r4
 800404e:	f04f 0b10 	mov.w	fp, #16
 8004052:	9c0b      	ldr	r4, [sp, #44]	; 0x2c
 8004054:	950f      	str	r5, [sp, #60]	; 0x3c
 8004056:	9d0e      	ldr	r5, [sp, #56]	; 0x38
 8004058:	e005      	b.n	8004066 <_svfprintf_r+0xc1e>
 800405a:	f1aa 0a10 	sub.w	sl, sl, #16
 800405e:	f1ba 0f10 	cmp.w	sl, #16
 8004062:	f340 80b1 	ble.w	80041c8 <_svfprintf_r+0xd80>
 8004066:	3301      	adds	r3, #1
 8004068:	3210      	adds	r2, #16
 800406a:	2b07      	cmp	r3, #7
 800406c:	e887 0840 	stmia.w	r7, {r6, fp}
 8004070:	932c      	str	r3, [sp, #176]	; 0xb0
 8004072:	f107 0708 	add.w	r7, r7, #8
 8004076:	922d      	str	r2, [sp, #180]	; 0xb4
 8004078:	ddef      	ble.n	800405a <_svfprintf_r+0xc12>
 800407a:	4628      	mov	r0, r5
 800407c:	4621      	mov	r1, r4
 800407e:	aa2b      	add	r2, sp, #172	; 0xac
 8004080:	af38      	add	r7, sp, #224	; 0xe0
 8004082:	f002 fe85 	bl	8006d90 <__ssprint_r>
 8004086:	2800      	cmp	r0, #0
 8004088:	f47f aac3 	bne.w	8003612 <_svfprintf_r+0x1ca>
 800408c:	9a2d      	ldr	r2, [sp, #180]	; 0xb4
 800408e:	9b2c      	ldr	r3, [sp, #176]	; 0xb0
 8004090:	e7e3      	b.n	800405a <_svfprintf_r+0xc12>
 8004092:	2d00      	cmp	r5, #0
 8004094:	bf08      	it	eq
 8004096:	2c0a      	cmpeq	r4, #10
 8004098:	f080 8141 	bcs.w	800431e <_svfprintf_r+0xed6>
 800409c:	9d21      	ldr	r5, [sp, #132]	; 0x84
 800409e:	3430      	adds	r4, #48	; 0x30
 80040a0:	f10d 08df 	add.w	r8, sp, #223	; 0xdf
 80040a4:	f88d 40df 	strb.w	r4, [sp, #223]	; 0xdf
 80040a8:	9510      	str	r5, [sp, #64]	; 0x40
 80040aa:	f7ff bb06 	b.w	80036ba <_svfprintf_r+0x272>
 80040ae:	bf00      	nop
 80040b0:	080094cc 	stmdaeq	r0, {r2, r3, r6, r7, sl, ip, pc}
 80040b4:	9d11      	ldr	r5, [sp, #68]	; 0x44
 80040b6:	f105 38ff 	add.w	r8, r5, #4294967295
 80040ba:	f1b8 0f00 	cmp.w	r8, #0
 80040be:	f77f af57 	ble.w	8003f70 <_svfprintf_r+0xb28>
 80040c2:	f1b8 0f10 	cmp.w	r8, #16
 80040c6:	bfdc      	itt	le
 80040c8:	4ba8      	ldrle	r3, [pc, #672]	; (800436c <_svfprintf_r+0xf24>)
 80040ca:	930f      	strle	r3, [sp, #60]	; 0x3c
 80040cc:	dd28      	ble.n	8004120 <_svfprintf_r+0xcd8>
 80040ce:	4da7      	ldr	r5, [pc, #668]	; (800436c <_svfprintf_r+0xf24>)
 80040d0:	4653      	mov	r3, sl
 80040d2:	f04f 0b10 	mov.w	fp, #16
 80040d6:	f8dd a02c 	ldr.w	sl, [sp, #44]	; 0x2c
 80040da:	950f      	str	r5, [sp, #60]	; 0x3c
 80040dc:	9d0e      	ldr	r5, [sp, #56]	; 0x38
 80040de:	e004      	b.n	80040ea <_svfprintf_r+0xca2>
 80040e0:	f1a8 0810 	sub.w	r8, r8, #16
 80040e4:	f1b8 0f10 	cmp.w	r8, #16
 80040e8:	dd19      	ble.n	800411e <_svfprintf_r+0xcd6>
 80040ea:	3401      	adds	r4, #1
 80040ec:	3310      	adds	r3, #16
 80040ee:	2c07      	cmp	r4, #7
 80040f0:	e887 0840 	stmia.w	r7, {r6, fp}
 80040f4:	942c      	str	r4, [sp, #176]	; 0xb0
 80040f6:	f107 0708 	add.w	r7, r7, #8
 80040fa:	932d      	str	r3, [sp, #180]	; 0xb4
 80040fc:	ddf0      	ble.n	80040e0 <_svfprintf_r+0xc98>
 80040fe:	4628      	mov	r0, r5
 8004100:	4651      	mov	r1, sl
 8004102:	aa2b      	add	r2, sp, #172	; 0xac
 8004104:	af38      	add	r7, sp, #224	; 0xe0
 8004106:	f002 fe43 	bl	8006d90 <__ssprint_r>
 800410a:	2800      	cmp	r0, #0
 800410c:	f47f aa81 	bne.w	8003612 <_svfprintf_r+0x1ca>
 8004110:	f1a8 0810 	sub.w	r8, r8, #16
 8004114:	9b2d      	ldr	r3, [sp, #180]	; 0xb4
 8004116:	f1b8 0f10 	cmp.w	r8, #16
 800411a:	9c2c      	ldr	r4, [sp, #176]	; 0xb0
 800411c:	dce5      	bgt.n	80040ea <_svfprintf_r+0xca2>
 800411e:	469a      	mov	sl, r3
 8004120:	3401      	adds	r4, #1
 8004122:	9b0f      	ldr	r3, [sp, #60]	; 0x3c
 8004124:	2c07      	cmp	r4, #7
 8004126:	44c2      	add	sl, r8
 8004128:	942c      	str	r4, [sp, #176]	; 0xb0
 800412a:	f8cd a0b4 	str.w	sl, [sp, #180]	; 0xb4
 800412e:	e887 0108 	stmia.w	r7, {r3, r8}
 8004132:	f77f af1c 	ble.w	8003f6e <_svfprintf_r+0xb26>
 8004136:	980e      	ldr	r0, [sp, #56]	; 0x38
 8004138:	aa2b      	add	r2, sp, #172	; 0xac
 800413a:	990b      	ldr	r1, [sp, #44]	; 0x2c
 800413c:	f002 fe28 	bl	8006d90 <__ssprint_r>
 8004140:	2800      	cmp	r0, #0
 8004142:	f47f aa66 	bne.w	8003612 <_svfprintf_r+0x1ca>
 8004146:	f8dd a0b4 	ldr.w	sl, [sp, #180]	; 0xb4
 800414a:	af38      	add	r7, sp, #224	; 0xe0
 800414c:	9c2c      	ldr	r4, [sp, #176]	; 0xb0
 800414e:	e70f      	b.n	8003f70 <_svfprintf_r+0xb28>
 8004150:	4d86      	ldr	r5, [pc, #536]	; (800436c <_svfprintf_r+0xf24>)
 8004152:	950f      	str	r5, [sp, #60]	; 0x3c
 8004154:	3301      	adds	r3, #1
 8004156:	9d0f      	ldr	r5, [sp, #60]	; 0x3c
 8004158:	2b07      	cmp	r3, #7
 800415a:	4444      	add	r4, r8
 800415c:	932c      	str	r3, [sp, #176]	; 0xb0
 800415e:	942d      	str	r4, [sp, #180]	; 0xb4
 8004160:	e887 0120 	stmia.w	r7, {r5, r8}
 8004164:	f77f ab96 	ble.w	8003894 <_svfprintf_r+0x44c>
 8004168:	e70e      	b.n	8003f88 <_svfprintf_r+0xb40>
 800416a:	9d14      	ldr	r5, [sp, #80]	; 0x50
 800416c:	3504      	adds	r5, #4
 800416e:	f855 4c04 	ldr.w	r4, [r5, #-4]
 8004172:	9514      	str	r5, [sp, #80]	; 0x50
 8004174:	2500      	movs	r5, #0
 8004176:	e50e      	b.n	8003b96 <_svfprintf_r+0x74e>
 8004178:	9d14      	ldr	r5, [sp, #80]	; 0x50
 800417a:	2301      	movs	r3, #1
 800417c:	3504      	adds	r5, #4
 800417e:	f855 4c04 	ldr.w	r4, [r5, #-4]
 8004182:	9514      	str	r5, [sp, #80]	; 0x50
 8004184:	2500      	movs	r5, #0
 8004186:	f7ff ba60 	b.w	800364a <_svfprintf_r+0x202>
 800418a:	9d14      	ldr	r5, [sp, #80]	; 0x50
 800418c:	3504      	adds	r5, #4
 800418e:	f855 4c04 	ldr.w	r4, [r5, #-4]
 8004192:	9514      	str	r5, [sp, #80]	; 0x50
 8004194:	2500      	movs	r5, #0
 8004196:	f7ff ba58 	b.w	800364a <_svfprintf_r+0x202>
 800419a:	9d14      	ldr	r5, [sp, #80]	; 0x50
 800419c:	3504      	adds	r5, #4
 800419e:	f855 4c04 	ldr.w	r4, [r5, #-4]
 80041a2:	9514      	str	r5, [sp, #80]	; 0x50
 80041a4:	4622      	mov	r2, r4
 80041a6:	17e5      	asrs	r5, r4, #31
 80041a8:	462b      	mov	r3, r5
 80041aa:	2a00      	cmp	r2, #0
 80041ac:	f173 0000 	sbcs.w	r0, r3, #0
 80041b0:	f6bf ac45 	bge.w	8003a3e <_svfprintf_r+0x5f6>
 80041b4:	f04f 0a2d 	mov.w	sl, #45	; 0x2d
 80041b8:	4264      	negs	r4, r4
 80041ba:	eb65 0545 	sbc.w	r5, r5, r5, lsl #1
 80041be:	f88d a08f 	strb.w	sl, [sp, #143]	; 0x8f
 80041c2:	2301      	movs	r3, #1
 80041c4:	f7ff ba45 	b.w	8003652 <_svfprintf_r+0x20a>
 80041c8:	4614      	mov	r4, r2
 80041ca:	3301      	adds	r3, #1
 80041cc:	9d0f      	ldr	r5, [sp, #60]	; 0x3c
 80041ce:	2b07      	cmp	r3, #7
 80041d0:	4454      	add	r4, sl
 80041d2:	932c      	str	r3, [sp, #176]	; 0xb0
 80041d4:	e887 0420 	stmia.w	r7, {r5, sl}
 80041d8:	bfd8      	it	le
 80041da:	3708      	addle	r7, #8
 80041dc:	942d      	str	r4, [sp, #180]	; 0xb4
 80041de:	dd09      	ble.n	80041f4 <_svfprintf_r+0xdac>
 80041e0:	980e      	ldr	r0, [sp, #56]	; 0x38
 80041e2:	aa2b      	add	r2, sp, #172	; 0xac
 80041e4:	990b      	ldr	r1, [sp, #44]	; 0x2c
 80041e6:	f002 fdd3 	bl	8006d90 <__ssprint_r>
 80041ea:	2800      	cmp	r0, #0
 80041ec:	f47f aa11 	bne.w	8003612 <_svfprintf_r+0x1ca>
 80041f0:	9c2d      	ldr	r4, [sp, #180]	; 0xb4
 80041f2:	af38      	add	r7, sp, #224	; 0xe0
 80041f4:	9d18      	ldr	r5, [sp, #96]	; 0x60
 80041f6:	9b25      	ldr	r3, [sp, #148]	; 0x94
 80041f8:	44a8      	add	r8, r5
 80041fa:	9d11      	ldr	r5, [sp, #68]	; 0x44
 80041fc:	42ab      	cmp	r3, r5
 80041fe:	db49      	blt.n	8004294 <_svfprintf_r+0xe4c>
 8004200:	9d0a      	ldr	r5, [sp, #40]	; 0x28
 8004202:	07e9      	lsls	r1, r5, #31
 8004204:	d446      	bmi.n	8004294 <_svfprintf_r+0xe4c>
 8004206:	980c      	ldr	r0, [sp, #48]	; 0x30
 8004208:	9911      	ldr	r1, [sp, #68]	; 0x44
 800420a:	ebc8 0500 	rsb	r5, r8, r0
 800420e:	1acb      	subs	r3, r1, r3
 8004210:	42ab      	cmp	r3, r5
 8004212:	bfb8      	it	lt
 8004214:	461d      	movlt	r5, r3
 8004216:	2d00      	cmp	r5, #0
 8004218:	dd0c      	ble.n	8004234 <_svfprintf_r+0xdec>
 800421a:	9a2c      	ldr	r2, [sp, #176]	; 0xb0
 800421c:	442c      	add	r4, r5
 800421e:	f8c7 8000 	str.w	r8, [r7]
 8004222:	3201      	adds	r2, #1
 8004224:	607d      	str	r5, [r7, #4]
 8004226:	2a07      	cmp	r2, #7
 8004228:	942d      	str	r4, [sp, #180]	; 0xb4
 800422a:	922c      	str	r2, [sp, #176]	; 0xb0
 800422c:	bfd8      	it	le
 800422e:	3708      	addle	r7, #8
 8004230:	f300 824a 	bgt.w	80046c8 <_svfprintf_r+0x1280>
 8004234:	ea25 75e5 	bic.w	r5, r5, r5, asr #31
 8004238:	ebc5 0803 	rsb	r8, r5, r3
 800423c:	f1b8 0f00 	cmp.w	r8, #0
 8004240:	f77f ab29 	ble.w	8003896 <_svfprintf_r+0x44e>
 8004244:	f1b8 0f10 	cmp.w	r8, #16
 8004248:	9b2c      	ldr	r3, [sp, #176]	; 0xb0
 800424a:	dd81      	ble.n	8004150 <_svfprintf_r+0xd08>
 800424c:	4d47      	ldr	r5, [pc, #284]	; (800436c <_svfprintf_r+0xf24>)
 800424e:	f04f 0a10 	mov.w	sl, #16
 8004252:	f8dd b02c 	ldr.w	fp, [sp, #44]	; 0x2c
 8004256:	950f      	str	r5, [sp, #60]	; 0x3c
 8004258:	9d0e      	ldr	r5, [sp, #56]	; 0x38
 800425a:	e005      	b.n	8004268 <_svfprintf_r+0xe20>
 800425c:	f1a8 0810 	sub.w	r8, r8, #16
 8004260:	f1b8 0f10 	cmp.w	r8, #16
 8004264:	f77f af76 	ble.w	8004154 <_svfprintf_r+0xd0c>
 8004268:	3301      	adds	r3, #1
 800426a:	3410      	adds	r4, #16
 800426c:	2b07      	cmp	r3, #7
 800426e:	e887 0440 	stmia.w	r7, {r6, sl}
 8004272:	932c      	str	r3, [sp, #176]	; 0xb0
 8004274:	f107 0708 	add.w	r7, r7, #8
 8004278:	942d      	str	r4, [sp, #180]	; 0xb4
 800427a:	ddef      	ble.n	800425c <_svfprintf_r+0xe14>
 800427c:	4628      	mov	r0, r5
 800427e:	4659      	mov	r1, fp
 8004280:	aa2b      	add	r2, sp, #172	; 0xac
 8004282:	af38      	add	r7, sp, #224	; 0xe0
 8004284:	f002 fd84 	bl	8006d90 <__ssprint_r>
 8004288:	2800      	cmp	r0, #0
 800428a:	f47f a9c2 	bne.w	8003612 <_svfprintf_r+0x1ca>
 800428e:	9c2d      	ldr	r4, [sp, #180]	; 0xb4
 8004290:	9b2c      	ldr	r3, [sp, #176]	; 0xb0
 8004292:	e7e3      	b.n	800425c <_svfprintf_r+0xe14>
 8004294:	9d1d      	ldr	r5, [sp, #116]	; 0x74
 8004296:	9a2c      	ldr	r2, [sp, #176]	; 0xb0
 8004298:	442c      	add	r4, r5
 800429a:	9d1a      	ldr	r5, [sp, #104]	; 0x68
 800429c:	3201      	adds	r2, #1
 800429e:	942d      	str	r4, [sp, #180]	; 0xb4
 80042a0:	2a07      	cmp	r2, #7
 80042a2:	922c      	str	r2, [sp, #176]	; 0xb0
 80042a4:	603d      	str	r5, [r7, #0]
 80042a6:	9d1d      	ldr	r5, [sp, #116]	; 0x74
 80042a8:	607d      	str	r5, [r7, #4]
 80042aa:	bfd8      	it	le
 80042ac:	3708      	addle	r7, #8
 80042ae:	ddaa      	ble.n	8004206 <_svfprintf_r+0xdbe>
 80042b0:	980e      	ldr	r0, [sp, #56]	; 0x38
 80042b2:	aa2b      	add	r2, sp, #172	; 0xac
 80042b4:	990b      	ldr	r1, [sp, #44]	; 0x2c
 80042b6:	f002 fd6b 	bl	8006d90 <__ssprint_r>
 80042ba:	2800      	cmp	r0, #0
 80042bc:	f47f a9a9 	bne.w	8003612 <_svfprintf_r+0x1ca>
 80042c0:	9b25      	ldr	r3, [sp, #148]	; 0x94
 80042c2:	af38      	add	r7, sp, #224	; 0xe0
 80042c4:	9c2d      	ldr	r4, [sp, #180]	; 0xb4
 80042c6:	e79e      	b.n	8004206 <_svfprintf_r+0xdbe>
 80042c8:	9d0a      	ldr	r5, [sp, #40]	; 0x28
 80042ca:	07ea      	lsls	r2, r5, #31
 80042cc:	f53f ae1a 	bmi.w	8003f04 <_svfprintf_r+0xabc>
 80042d0:	2201      	movs	r2, #1
 80042d2:	f104 0a01 	add.w	sl, r4, #1
 80042d6:	189c      	adds	r4, r3, r2
 80042d8:	f8c7 8000 	str.w	r8, [r7]
 80042dc:	2c07      	cmp	r4, #7
 80042de:	f8cd a0b4 	str.w	sl, [sp, #180]	; 0xb4
 80042e2:	942c      	str	r4, [sp, #176]	; 0xb0
 80042e4:	607a      	str	r2, [r7, #4]
 80042e6:	f77f ae42 	ble.w	8003f6e <_svfprintf_r+0xb26>
 80042ea:	e724      	b.n	8004136 <_svfprintf_r+0xcee>
 80042ec:	980e      	ldr	r0, [sp, #56]	; 0x38
 80042ee:	aa2b      	add	r2, sp, #172	; 0xac
 80042f0:	990b      	ldr	r1, [sp, #44]	; 0x2c
 80042f2:	f002 fd4d 	bl	8006d90 <__ssprint_r>
 80042f6:	2800      	cmp	r0, #0
 80042f8:	f47f a98b 	bne.w	8003612 <_svfprintf_r+0x1ca>
 80042fc:	f8dd a0b4 	ldr.w	sl, [sp, #180]	; 0xb4
 8004300:	af38      	add	r7, sp, #224	; 0xe0
 8004302:	9c2c      	ldr	r4, [sp, #176]	; 0xb0
 8004304:	e61b      	b.n	8003f3e <_svfprintf_r+0xaf6>
 8004306:	980e      	ldr	r0, [sp, #56]	; 0x38
 8004308:	aa2b      	add	r2, sp, #172	; 0xac
 800430a:	990b      	ldr	r1, [sp, #44]	; 0x2c
 800430c:	f002 fd40 	bl	8006d90 <__ssprint_r>
 8004310:	2800      	cmp	r0, #0
 8004312:	f47f a97e 	bne.w	8003612 <_svfprintf_r+0x1ca>
 8004316:	9a2d      	ldr	r2, [sp, #180]	; 0xb4
 8004318:	af38      	add	r7, sp, #224	; 0xe0
 800431a:	9b2c      	ldr	r3, [sp, #176]	; 0xb0
 800431c:	e5ff      	b.n	8003f1e <_svfprintf_r+0xad6>
 800431e:	f10d 0bdf 	add.w	fp, sp, #223	; 0xdf
 8004322:	4620      	mov	r0, r4
 8004324:	4629      	mov	r1, r5
 8004326:	220a      	movs	r2, #10
 8004328:	2300      	movs	r3, #0
 800432a:	f004 fd51 	bl	8008dd0 <__aeabi_uldivmod>
 800432e:	46d8      	mov	r8, fp
 8004330:	4620      	mov	r0, r4
 8004332:	4629      	mov	r1, r5
 8004334:	2300      	movs	r3, #0
 8004336:	f10b 3bff 	add.w	fp, fp, #4294967295
 800433a:	3230      	adds	r2, #48	; 0x30
 800433c:	f888 2000 	strb.w	r2, [r8]
 8004340:	220a      	movs	r2, #10
 8004342:	f004 fd45 	bl	8008dd0 <__aeabi_uldivmod>
 8004346:	4604      	mov	r4, r0
 8004348:	460d      	mov	r5, r1
 800434a:	ea54 0005 	orrs.w	r0, r4, r5
 800434e:	d1e8      	bne.n	8004322 <_svfprintf_r+0xeda>
 8004350:	f7ff b9af 	b.w	80036b2 <_svfprintf_r+0x26a>
 8004354:	2b30      	cmp	r3, #48	; 0x30
 8004356:	f43f a9ac 	beq.w	80036b2 <_svfprintf_r+0x26a>
 800435a:	9c09      	ldr	r4, [sp, #36]	; 0x24
 800435c:	2330      	movs	r3, #48	; 0x30
 800435e:	4690      	mov	r8, r2
 8004360:	f801 3c01 	strb.w	r3, [r1, #-1]
 8004364:	1aa4      	subs	r4, r4, r2
 8004366:	9410      	str	r4, [sp, #64]	; 0x40
 8004368:	f7ff b9a7 	b.w	80036ba <_svfprintf_r+0x272>
 800436c:	080094cc 	stmdaeq	r0, {r2, r3, r6, r7, sl, ip, pc}
 8004370:	991c      	ldr	r1, [sp, #112]	; 0x70
 8004372:	f002 fb83 	bl	8006a7c <__fpclassifyd>
 8004376:	2800      	cmp	r0, #0
 8004378:	f040 80ab 	bne.w	80044d2 <_svfprintf_r+0x108a>
 800437c:	2503      	movs	r5, #3
 800437e:	9c0a      	ldr	r4, [sp, #40]	; 0x28
 8004380:	f249 684c 	movw	r8, #38476	; 0x964c
 8004384:	f249 6348 	movw	r3, #38472	; 0x9648
 8004388:	950d      	str	r5, [sp, #52]	; 0x34
 800438a:	f6c0 0800 	movt	r8, #2048	; 0x800
 800438e:	9d16      	ldr	r5, [sp, #88]	; 0x58
 8004390:	f6c0 0300 	movt	r3, #2048	; 0x800
 8004394:	f024 0480 	bic.w	r4, r4, #128	; 0x80
 8004398:	900c      	str	r0, [sp, #48]	; 0x30
 800439a:	940a      	str	r4, [sp, #40]	; 0x28
 800439c:	2d47      	cmp	r5, #71	; 0x47
 800439e:	bfd8      	it	le
 80043a0:	4698      	movle	r8, r3
 80043a2:	2403      	movs	r4, #3
 80043a4:	9018      	str	r0, [sp, #96]	; 0x60
 80043a6:	9410      	str	r4, [sp, #64]	; 0x40
 80043a8:	f89d a08f 	ldrb.w	sl, [sp, #143]	; 0x8f
 80043ac:	f7ff b98d 	b.w	80036ca <_svfprintf_r+0x282>
 80043b0:	9c14      	ldr	r4, [sp, #80]	; 0x50
 80043b2:	1de3      	adds	r3, r4, #7
 80043b4:	f023 0307 	bic.w	r3, r3, #7
 80043b8:	f103 0508 	add.w	r5, r3, #8
 80043bc:	9514      	str	r5, [sp, #80]	; 0x50
 80043be:	681c      	ldr	r4, [r3, #0]
 80043c0:	941b      	str	r4, [sp, #108]	; 0x6c
 80043c2:	685b      	ldr	r3, [r3, #4]
 80043c4:	931c      	str	r3, [sp, #112]	; 0x70
 80043c6:	f7ff bb53 	b.w	8003a70 <_svfprintf_r+0x628>
 80043ca:	9c0a      	ldr	r4, [sp, #40]	; 0x28
 80043cc:	06e2      	lsls	r2, r4, #27
 80043ce:	d572      	bpl.n	80044b6 <_svfprintf_r+0x106e>
 80043d0:	9d14      	ldr	r5, [sp, #80]	; 0x50
 80043d2:	9c12      	ldr	r4, [sp, #72]	; 0x48
 80043d4:	3504      	adds	r5, #4
 80043d6:	f855 3c04 	ldr.w	r3, [r5, #-4]
 80043da:	9514      	str	r5, [sp, #80]	; 0x50
 80043dc:	601c      	str	r4, [r3, #0]
 80043de:	f7ff b869 	b.w	80034b4 <_svfprintf_r+0x6c>
 80043e2:	980e      	ldr	r0, [sp, #56]	; 0x38
 80043e4:	aa2b      	add	r2, sp, #172	; 0xac
 80043e6:	990b      	ldr	r1, [sp, #44]	; 0x2c
 80043e8:	f002 fcd2 	bl	8006d90 <__ssprint_r>
 80043ec:	2800      	cmp	r0, #0
 80043ee:	f47f a910 	bne.w	8003612 <_svfprintf_r+0x1ca>
 80043f2:	9c2d      	ldr	r4, [sp, #180]	; 0xb4
 80043f4:	af38      	add	r7, sp, #224	; 0xe0
 80043f6:	e4de      	b.n	8003db6 <_svfprintf_r+0x96e>
 80043f8:	9a2c      	ldr	r2, [sp, #176]	; 0xb0
 80043fa:	2101      	movs	r1, #1
 80043fc:	9d17      	ldr	r5, [sp, #92]	; 0x5c
 80043fe:	3401      	adds	r4, #1
 8004400:	440a      	add	r2, r1
 8004402:	942d      	str	r4, [sp, #180]	; 0xb4
 8004404:	2a07      	cmp	r2, #7
 8004406:	922c      	str	r2, [sp, #176]	; 0xb0
 8004408:	603d      	str	r5, [r7, #0]
 800440a:	6079      	str	r1, [r7, #4]
 800440c:	f300 8112 	bgt.w	8004634 <_svfprintf_r+0x11ec>
 8004410:	3708      	adds	r7, #8
 8004412:	4619      	mov	r1, r3
 8004414:	b929      	cbnz	r1, 8004422 <_svfprintf_r+0xfda>
 8004416:	9d11      	ldr	r5, [sp, #68]	; 0x44
 8004418:	b91d      	cbnz	r5, 8004422 <_svfprintf_r+0xfda>
 800441a:	9d0a      	ldr	r5, [sp, #40]	; 0x28
 800441c:	07e8      	lsls	r0, r5, #31
 800441e:	f57f aa3a 	bpl.w	8003896 <_svfprintf_r+0x44e>
 8004422:	9b2c      	ldr	r3, [sp, #176]	; 0xb0
 8004424:	9a1d      	ldr	r2, [sp, #116]	; 0x74
 8004426:	3301      	adds	r3, #1
 8004428:	9d1d      	ldr	r5, [sp, #116]	; 0x74
 800442a:	4422      	add	r2, r4
 800442c:	9c1a      	ldr	r4, [sp, #104]	; 0x68
 800442e:	2b07      	cmp	r3, #7
 8004430:	922d      	str	r2, [sp, #180]	; 0xb4
 8004432:	607d      	str	r5, [r7, #4]
 8004434:	603c      	str	r4, [r7, #0]
 8004436:	bfd8      	it	le
 8004438:	3708      	addle	r7, #8
 800443a:	932c      	str	r3, [sp, #176]	; 0xb0
 800443c:	f300 81ba 	bgt.w	80047b4 <_svfprintf_r+0x136c>
 8004440:	f1c1 0a00 	rsb	sl, r1, #0
 8004444:	f1ba 0f00 	cmp.w	sl, #0
 8004448:	f340 8116 	ble.w	8004678 <_svfprintf_r+0x1230>
 800444c:	f1ba 0f10 	cmp.w	sl, #16
 8004450:	bfdc      	itt	le
 8004452:	4c9c      	ldrle	r4, [pc, #624]	; (80046c4 <_svfprintf_r+0x127c>)
 8004454:	940f      	strle	r4, [sp, #60]	; 0x3c
 8004456:	f340 80f9 	ble.w	800464c <_svfprintf_r+0x1204>
 800445a:	4d9a      	ldr	r5, [pc, #616]	; (80046c4 <_svfprintf_r+0x127c>)
 800445c:	2410      	movs	r4, #16
 800445e:	f8dd b02c 	ldr.w	fp, [sp, #44]	; 0x2c
 8004462:	950f      	str	r5, [sp, #60]	; 0x3c
 8004464:	9d0e      	ldr	r5, [sp, #56]	; 0x38
 8004466:	e005      	b.n	8004474 <_svfprintf_r+0x102c>
 8004468:	f1aa 0a10 	sub.w	sl, sl, #16
 800446c:	f1ba 0f10 	cmp.w	sl, #16
 8004470:	f340 80ec 	ble.w	800464c <_svfprintf_r+0x1204>
 8004474:	3301      	adds	r3, #1
 8004476:	3210      	adds	r2, #16
 8004478:	2b07      	cmp	r3, #7
 800447a:	603e      	str	r6, [r7, #0]
 800447c:	607c      	str	r4, [r7, #4]
 800447e:	f107 0708 	add.w	r7, r7, #8
 8004482:	932c      	str	r3, [sp, #176]	; 0xb0
 8004484:	922d      	str	r2, [sp, #180]	; 0xb4
 8004486:	ddef      	ble.n	8004468 <_svfprintf_r+0x1020>
 8004488:	4628      	mov	r0, r5
 800448a:	4659      	mov	r1, fp
 800448c:	aa2b      	add	r2, sp, #172	; 0xac
 800448e:	af38      	add	r7, sp, #224	; 0xe0
 8004490:	f002 fc7e 	bl	8006d90 <__ssprint_r>
 8004494:	2800      	cmp	r0, #0
 8004496:	f47f a8bc 	bne.w	8003612 <_svfprintf_r+0x1ca>
 800449a:	9a2d      	ldr	r2, [sp, #180]	; 0xb4
 800449c:	9b2c      	ldr	r3, [sp, #176]	; 0xb0
 800449e:	e7e3      	b.n	8004468 <_svfprintf_r+0x1020>
 80044a0:	980e      	ldr	r0, [sp, #56]	; 0x38
 80044a2:	aa2b      	add	r2, sp, #172	; 0xac
 80044a4:	990b      	ldr	r1, [sp, #44]	; 0x2c
 80044a6:	f002 fc73 	bl	8006d90 <__ssprint_r>
 80044aa:	2800      	cmp	r0, #0
 80044ac:	f47f a8b1 	bne.w	8003612 <_svfprintf_r+0x1ca>
 80044b0:	9c2d      	ldr	r4, [sp, #180]	; 0xb4
 80044b2:	af38      	add	r7, sp, #224	; 0xe0
 80044b4:	e496      	b.n	8003de4 <_svfprintf_r+0x99c>
 80044b6:	9c14      	ldr	r4, [sp, #80]	; 0x50
 80044b8:	9d0a      	ldr	r5, [sp, #40]	; 0x28
 80044ba:	3404      	adds	r4, #4
 80044bc:	f854 3c04 	ldr.w	r3, [r4, #-4]
 80044c0:	f015 0f40 	tst.w	r5, #64	; 0x40
 80044c4:	9d12      	ldr	r5, [sp, #72]	; 0x48
 80044c6:	9414      	str	r4, [sp, #80]	; 0x50
 80044c8:	bf14      	ite	ne
 80044ca:	801d      	strhne	r5, [r3, #0]
 80044cc:	601d      	streq	r5, [r3, #0]
 80044ce:	f7fe bff1 	b.w	80034b4 <_svfprintf_r+0x6c>
 80044d2:	9d0c      	ldr	r5, [sp, #48]	; 0x30
 80044d4:	9c16      	ldr	r4, [sp, #88]	; 0x58
 80044d6:	3501      	adds	r5, #1
 80044d8:	f024 0520 	bic.w	r5, r4, #32
 80044dc:	bf04      	itt	eq
 80044de:	2406      	moveq	r4, #6
 80044e0:	940c      	streq	r4, [sp, #48]	; 0x30
 80044e2:	d006      	beq.n	80044f2 <_svfprintf_r+0x10aa>
 80044e4:	2d47      	cmp	r5, #71	; 0x47
 80044e6:	d104      	bne.n	80044f2 <_svfprintf_r+0x10aa>
 80044e8:	9c0c      	ldr	r4, [sp, #48]	; 0x30
 80044ea:	2c00      	cmp	r4, #0
 80044ec:	bf08      	it	eq
 80044ee:	2401      	moveq	r4, #1
 80044f0:	940c      	str	r4, [sp, #48]	; 0x30
 80044f2:	9b1c      	ldr	r3, [sp, #112]	; 0x70
 80044f4:	9c0a      	ldr	r4, [sp, #40]	; 0x28
 80044f6:	2b00      	cmp	r3, #0
 80044f8:	f444 7480 	orr.w	r4, r4, #256	; 0x100
 80044fc:	940f      	str	r4, [sp, #60]	; 0x3c
 80044fe:	bfbd      	ittte	lt
 8004500:	461c      	movlt	r4, r3
 8004502:	f04f 0b2d 	movlt.w	fp, #45	; 0x2d
 8004506:	f104 4a00 	addlt.w	sl, r4, #2147483648	; 0x80000000
 800450a:	f8dd a070 	ldrge.w	sl, [sp, #112]	; 0x70
 800450e:	bfa8      	it	ge
 8004510:	f04f 0b00 	movge.w	fp, #0
 8004514:	f1b5 0446 	subs.w	r4, r5, #70	; 0x46
 8004518:	4261      	negs	r1, r4
 800451a:	4161      	adcs	r1, r4
 800451c:	2900      	cmp	r1, #0
 800451e:	d030      	beq.n	8004582 <_svfprintf_r+0x113a>
 8004520:	2003      	movs	r0, #3
 8004522:	9c0c      	ldr	r4, [sp, #48]	; 0x30
 8004524:	4653      	mov	r3, sl
 8004526:	9000      	str	r0, [sp, #0]
 8004528:	a825      	add	r0, sp, #148	; 0x94
 800452a:	9a1b      	ldr	r2, [sp, #108]	; 0x6c
 800452c:	9002      	str	r0, [sp, #8]
 800452e:	a826      	add	r0, sp, #152	; 0x98
 8004530:	9401      	str	r4, [sp, #4]
 8004532:	9003      	str	r0, [sp, #12]
 8004534:	a829      	add	r0, sp, #164	; 0xa4
 8004536:	9004      	str	r0, [sp, #16]
 8004538:	980e      	ldr	r0, [sp, #56]	; 0x38
 800453a:	9107      	str	r1, [sp, #28]
 800453c:	f000 fa86 	bl	8004a4c <_dtoa_r>
 8004540:	2d47      	cmp	r5, #71	; 0x47
 8004542:	9907      	ldr	r1, [sp, #28]
 8004544:	4680      	mov	r8, r0
 8004546:	d103      	bne.n	8004550 <_svfprintf_r+0x1108>
 8004548:	9c0a      	ldr	r4, [sp, #40]	; 0x28
 800454a:	07e0      	lsls	r0, r4, #31
 800454c:	f140 80f0 	bpl.w	8004730 <_svfprintf_r+0x12e8>
 8004550:	9c0c      	ldr	r4, [sp, #48]	; 0x30
 8004552:	4444      	add	r4, r8
 8004554:	b351      	cbz	r1, 80045ac <_svfprintf_r+0x1164>
 8004556:	f898 3000 	ldrb.w	r3, [r8]
 800455a:	2b30      	cmp	r3, #48	; 0x30
 800455c:	f000 8184 	beq.w	8004868 <_svfprintf_r+0x1420>
 8004560:	9b25      	ldr	r3, [sp, #148]	; 0x94
 8004562:	441c      	add	r4, r3
 8004564:	e022      	b.n	80045ac <_svfprintf_r+0x1164>
 8004566:	980e      	ldr	r0, [sp, #56]	; 0x38
 8004568:	2140      	movs	r1, #64	; 0x40
 800456a:	f001 fa93 	bl	8005a94 <_malloc_r>
 800456e:	6020      	str	r0, [r4, #0]
 8004570:	6120      	str	r0, [r4, #16]
 8004572:	2800      	cmp	r0, #0
 8004574:	f000 81b6 	beq.w	80048e4 <_svfprintf_r+0x149c>
 8004578:	9c0b      	ldr	r4, [sp, #44]	; 0x2c
 800457a:	2340      	movs	r3, #64	; 0x40
 800457c:	6163      	str	r3, [r4, #20]
 800457e:	f7fe bf79 	b.w	8003474 <_svfprintf_r+0x2c>
 8004582:	2d45      	cmp	r5, #69	; 0x45
 8004584:	f040 8131 	bne.w	80047ea <_svfprintf_r+0x13a2>
 8004588:	980c      	ldr	r0, [sp, #48]	; 0x30
 800458a:	2102      	movs	r1, #2
 800458c:	9a1b      	ldr	r2, [sp, #108]	; 0x6c
 800458e:	4653      	mov	r3, sl
 8004590:	1c44      	adds	r4, r0, #1
 8004592:	9100      	str	r1, [sp, #0]
 8004594:	9401      	str	r4, [sp, #4]
 8004596:	a925      	add	r1, sp, #148	; 0x94
 8004598:	980e      	ldr	r0, [sp, #56]	; 0x38
 800459a:	9102      	str	r1, [sp, #8]
 800459c:	a926      	add	r1, sp, #152	; 0x98
 800459e:	9103      	str	r1, [sp, #12]
 80045a0:	a929      	add	r1, sp, #164	; 0xa4
 80045a2:	9104      	str	r1, [sp, #16]
 80045a4:	f000 fa52 	bl	8004a4c <_dtoa_r>
 80045a8:	4680      	mov	r8, r0
 80045aa:	4404      	add	r4, r0
 80045ac:	2300      	movs	r3, #0
 80045ae:	981b      	ldr	r0, [sp, #108]	; 0x6c
 80045b0:	2200      	movs	r2, #0
 80045b2:	4651      	mov	r1, sl
 80045b4:	f004 fbb2 	bl	8008d1c <__aeabi_dcmpeq>
 80045b8:	4623      	mov	r3, r4
 80045ba:	b948      	cbnz	r0, 80045d0 <_svfprintf_r+0x1188>
 80045bc:	9b29      	ldr	r3, [sp, #164]	; 0xa4
 80045be:	429c      	cmp	r4, r3
 80045c0:	d906      	bls.n	80045d0 <_svfprintf_r+0x1188>
 80045c2:	2130      	movs	r1, #48	; 0x30
 80045c4:	1c5a      	adds	r2, r3, #1
 80045c6:	9229      	str	r2, [sp, #164]	; 0xa4
 80045c8:	7019      	strb	r1, [r3, #0]
 80045ca:	9b29      	ldr	r3, [sp, #164]	; 0xa4
 80045cc:	429c      	cmp	r4, r3
 80045ce:	d8f9      	bhi.n	80045c4 <_svfprintf_r+0x117c>
 80045d0:	2d47      	cmp	r5, #71	; 0x47
 80045d2:	ebc8 0303 	rsb	r3, r8, r3
 80045d6:	9311      	str	r3, [sp, #68]	; 0x44
 80045d8:	f000 80ae 	beq.w	8004738 <_svfprintf_r+0x12f0>
 80045dc:	9c16      	ldr	r4, [sp, #88]	; 0x58
 80045de:	2c65      	cmp	r4, #101	; 0x65
 80045e0:	f340 818a 	ble.w	80048f8 <_svfprintf_r+0x14b0>
 80045e4:	9d16      	ldr	r5, [sp, #88]	; 0x58
 80045e6:	2d66      	cmp	r5, #102	; 0x66
 80045e8:	f000 8101 	beq.w	80047ee <_svfprintf_r+0x13a6>
 80045ec:	9c25      	ldr	r4, [sp, #148]	; 0x94
 80045ee:	9418      	str	r4, [sp, #96]	; 0x60
 80045f0:	9c18      	ldr	r4, [sp, #96]	; 0x60
 80045f2:	9d11      	ldr	r5, [sp, #68]	; 0x44
 80045f4:	42ac      	cmp	r4, r5
 80045f6:	f2c0 80ea 	blt.w	80047ce <_svfprintf_r+0x1386>
 80045fa:	9c0a      	ldr	r4, [sp, #40]	; 0x28
 80045fc:	9d18      	ldr	r5, [sp, #96]	; 0x60
 80045fe:	07e0      	lsls	r0, r4, #31
 8004600:	bf4b      	itete	mi
 8004602:	3501      	addmi	r5, #1
 8004604:	ea25 73e5 	bicpl.w	r3, r5, r5, asr #31
 8004608:	ea25 73e5 	bicmi.w	r3, r5, r5, asr #31
 800460c:	2467      	movpl	r4, #103	; 0x67
 800460e:	bf4d      	iteet	mi
 8004610:	2467      	movmi	r4, #103	; 0x67
 8004612:	9510      	strpl	r5, [sp, #64]	; 0x40
 8004614:	9416      	strpl	r4, [sp, #88]	; 0x58
 8004616:	9510      	strmi	r5, [sp, #64]	; 0x40
 8004618:	bf48      	it	mi
 800461a:	9416      	strmi	r4, [sp, #88]	; 0x58
 800461c:	f1bb 0f00 	cmp.w	fp, #0
 8004620:	d175      	bne.n	800470e <_svfprintf_r+0x12c6>
 8004622:	9c0f      	ldr	r4, [sp, #60]	; 0x3c
 8004624:	930d      	str	r3, [sp, #52]	; 0x34
 8004626:	f8cd b030 	str.w	fp, [sp, #48]	; 0x30
 800462a:	940a      	str	r4, [sp, #40]	; 0x28
 800462c:	f89d a08f 	ldrb.w	sl, [sp, #143]	; 0x8f
 8004630:	f7ff b84b 	b.w	80036ca <_svfprintf_r+0x282>
 8004634:	980e      	ldr	r0, [sp, #56]	; 0x38
 8004636:	aa2b      	add	r2, sp, #172	; 0xac
 8004638:	990b      	ldr	r1, [sp, #44]	; 0x2c
 800463a:	f002 fba9 	bl	8006d90 <__ssprint_r>
 800463e:	2800      	cmp	r0, #0
 8004640:	f47e afe7 	bne.w	8003612 <_svfprintf_r+0x1ca>
 8004644:	9925      	ldr	r1, [sp, #148]	; 0x94
 8004646:	af38      	add	r7, sp, #224	; 0xe0
 8004648:	9c2d      	ldr	r4, [sp, #180]	; 0xb4
 800464a:	e6e3      	b.n	8004414 <_svfprintf_r+0xfcc>
 800464c:	3301      	adds	r3, #1
 800464e:	9c0f      	ldr	r4, [sp, #60]	; 0x3c
 8004650:	2b07      	cmp	r3, #7
 8004652:	4452      	add	r2, sl
 8004654:	932c      	str	r3, [sp, #176]	; 0xb0
 8004656:	e887 0410 	stmia.w	r7, {r4, sl}
 800465a:	bfd8      	it	le
 800465c:	3708      	addle	r7, #8
 800465e:	922d      	str	r2, [sp, #180]	; 0xb4
 8004660:	dd0a      	ble.n	8004678 <_svfprintf_r+0x1230>
 8004662:	980e      	ldr	r0, [sp, #56]	; 0x38
 8004664:	aa2b      	add	r2, sp, #172	; 0xac
 8004666:	990b      	ldr	r1, [sp, #44]	; 0x2c
 8004668:	f002 fb92 	bl	8006d90 <__ssprint_r>
 800466c:	2800      	cmp	r0, #0
 800466e:	f47e afd0 	bne.w	8003612 <_svfprintf_r+0x1ca>
 8004672:	9a2d      	ldr	r2, [sp, #180]	; 0xb4
 8004674:	af38      	add	r7, sp, #224	; 0xe0
 8004676:	9b2c      	ldr	r3, [sp, #176]	; 0xb0
 8004678:	3301      	adds	r3, #1
 800467a:	9d11      	ldr	r5, [sp, #68]	; 0x44
 800467c:	9c11      	ldr	r4, [sp, #68]	; 0x44
 800467e:	2b07      	cmp	r3, #7
 8004680:	932c      	str	r3, [sp, #176]	; 0xb0
 8004682:	4414      	add	r4, r2
 8004684:	f8c7 8000 	str.w	r8, [r7]
 8004688:	942d      	str	r4, [sp, #180]	; 0xb4
 800468a:	607d      	str	r5, [r7, #4]
 800468c:	f77f a902 	ble.w	8003894 <_svfprintf_r+0x44c>
 8004690:	e47a      	b.n	8003f88 <_svfprintf_r+0xb40>
 8004692:	950c      	str	r5, [sp, #48]	; 0x30
 8004694:	f002 fb4c 	bl	8006d30 <strlen>
 8004698:	9414      	str	r4, [sp, #80]	; 0x50
 800469a:	9c0c      	ldr	r4, [sp, #48]	; 0x30
 800469c:	f89d a08f 	ldrb.w	sl, [sp, #143]	; 0x8f
 80046a0:	9418      	str	r4, [sp, #96]	; 0x60
 80046a2:	ea20 75e0 	bic.w	r5, r0, r0, asr #31
 80046a6:	9010      	str	r0, [sp, #64]	; 0x40
 80046a8:	950d      	str	r5, [sp, #52]	; 0x34
 80046aa:	f7ff b80e 	b.w	80036ca <_svfprintf_r+0x282>
 80046ae:	980e      	ldr	r0, [sp, #56]	; 0x38
 80046b0:	aa2b      	add	r2, sp, #172	; 0xac
 80046b2:	990b      	ldr	r1, [sp, #44]	; 0x2c
 80046b4:	f002 fb6c 	bl	8006d90 <__ssprint_r>
 80046b8:	2800      	cmp	r0, #0
 80046ba:	f47e afaa 	bne.w	8003612 <_svfprintf_r+0x1ca>
 80046be:	9c2d      	ldr	r4, [sp, #180]	; 0xb4
 80046c0:	af38      	add	r7, sp, #224	; 0xe0
 80046c2:	e4b1      	b.n	8004028 <_svfprintf_r+0xbe0>
 80046c4:	080094cc 	stmdaeq	r0, {r2, r3, r6, r7, sl, ip, pc}
 80046c8:	980e      	ldr	r0, [sp, #56]	; 0x38
 80046ca:	aa2b      	add	r2, sp, #172	; 0xac
 80046cc:	990b      	ldr	r1, [sp, #44]	; 0x2c
 80046ce:	f002 fb5f 	bl	8006d90 <__ssprint_r>
 80046d2:	2800      	cmp	r0, #0
 80046d4:	f47e af9d 	bne.w	8003612 <_svfprintf_r+0x1ca>
 80046d8:	9b25      	ldr	r3, [sp, #148]	; 0x94
 80046da:	af38      	add	r7, sp, #224	; 0xe0
 80046dc:	9a11      	ldr	r2, [sp, #68]	; 0x44
 80046de:	9c2d      	ldr	r4, [sp, #180]	; 0xb4
 80046e0:	1ad3      	subs	r3, r2, r3
 80046e2:	e5a7      	b.n	8004234 <_svfprintf_r+0xdec>
 80046e4:	9d0c      	ldr	r5, [sp, #48]	; 0x30
 80046e6:	46c2      	mov	sl, r8
 80046e8:	f249 6878 	movw	r8, #38520	; 0x9678
 80046ec:	9414      	str	r4, [sp, #80]	; 0x50
 80046ee:	2d06      	cmp	r5, #6
 80046f0:	bf28      	it	cs
 80046f2:	2506      	movcs	r5, #6
 80046f4:	f8cd a030 	str.w	sl, [sp, #48]	; 0x30
 80046f8:	9510      	str	r5, [sp, #64]	; 0x40
 80046fa:	4654      	mov	r4, sl
 80046fc:	ea25 75e5 	bic.w	r5, r5, r5, asr #31
 8004700:	f8cd a060 	str.w	sl, [sp, #96]	; 0x60
 8004704:	950d      	str	r5, [sp, #52]	; 0x34
 8004706:	f6c0 0800 	movt	r8, #2048	; 0x800
 800470a:	f7fe bfde 	b.w	80036ca <_svfprintf_r+0x282>
 800470e:	9d0f      	ldr	r5, [sp, #60]	; 0x3c
 8004710:	f04f 0a2d 	mov.w	sl, #45	; 0x2d
 8004714:	2400      	movs	r4, #0
 8004716:	930d      	str	r3, [sp, #52]	; 0x34
 8004718:	f88d a08f 	strb.w	sl, [sp, #143]	; 0x8f
 800471c:	950a      	str	r5, [sp, #40]	; 0x28
 800471e:	940c      	str	r4, [sp, #48]	; 0x30
 8004720:	f7fe bfd6 	b.w	80036d0 <_svfprintf_r+0x288>
 8004724:	f04f 0a2d 	mov.w	sl, #45	; 0x2d
 8004728:	f88d a08f 	strb.w	sl, [sp, #143]	; 0x8f
 800472c:	f7ff b9b2 	b.w	8003a94 <_svfprintf_r+0x64c>
 8004730:	9b29      	ldr	r3, [sp, #164]	; 0xa4
 8004732:	ebc8 0303 	rsb	r3, r8, r3
 8004736:	9311      	str	r3, [sp, #68]	; 0x44
 8004738:	9b25      	ldr	r3, [sp, #148]	; 0x94
 800473a:	1cda      	adds	r2, r3, #3
 800473c:	db11      	blt.n	8004762 <_svfprintf_r+0x131a>
 800473e:	9c0c      	ldr	r4, [sp, #48]	; 0x30
 8004740:	429c      	cmp	r4, r3
 8004742:	db0e      	blt.n	8004762 <_svfprintf_r+0x131a>
 8004744:	9318      	str	r3, [sp, #96]	; 0x60
 8004746:	e753      	b.n	80045f0 <_svfprintf_r+0x11a8>
 8004748:	9d0c      	ldr	r5, [sp, #48]	; 0x30
 800474a:	9414      	str	r4, [sp, #80]	; 0x50
 800474c:	ea25 75e5 	bic.w	r5, r5, r5, asr #31
 8004750:	950d      	str	r5, [sp, #52]	; 0x34
 8004752:	9d0c      	ldr	r5, [sp, #48]	; 0x30
 8004754:	9018      	str	r0, [sp, #96]	; 0x60
 8004756:	900c      	str	r0, [sp, #48]	; 0x30
 8004758:	9510      	str	r5, [sp, #64]	; 0x40
 800475a:	f89d a08f 	ldrb.w	sl, [sp, #143]	; 0x8f
 800475e:	f7fe bfb4 	b.w	80036ca <_svfprintf_r+0x282>
 8004762:	9d16      	ldr	r5, [sp, #88]	; 0x58
 8004764:	3d02      	subs	r5, #2
 8004766:	9516      	str	r5, [sp, #88]	; 0x58
 8004768:	3b01      	subs	r3, #1
 800476a:	9d16      	ldr	r5, [sp, #88]	; 0x58
 800476c:	2b00      	cmp	r3, #0
 800476e:	9325      	str	r3, [sp, #148]	; 0x94
 8004770:	bfba      	itte	lt
 8004772:	425b      	neglt	r3, r3
 8004774:	222d      	movlt	r2, #45	; 0x2d
 8004776:	222b      	movge	r2, #43	; 0x2b
 8004778:	2b09      	cmp	r3, #9
 800477a:	f88d 509c 	strb.w	r5, [sp, #156]	; 0x9c
 800477e:	f88d 209d 	strb.w	r2, [sp, #157]	; 0x9d
 8004782:	dc43      	bgt.n	800480c <_svfprintf_r+0x13c4>
 8004784:	3330      	adds	r3, #48	; 0x30
 8004786:	f88d 309f 	strb.w	r3, [sp, #159]	; 0x9f
 800478a:	2330      	movs	r3, #48	; 0x30
 800478c:	f88d 309e 	strb.w	r3, [sp, #158]	; 0x9e
 8004790:	ab28      	add	r3, sp, #160	; 0xa0
 8004792:	9d11      	ldr	r5, [sp, #68]	; 0x44
 8004794:	aa27      	add	r2, sp, #156	; 0x9c
 8004796:	9c11      	ldr	r4, [sp, #68]	; 0x44
 8004798:	1a9a      	subs	r2, r3, r2
 800479a:	2d01      	cmp	r5, #1
 800479c:	921e      	str	r2, [sp, #120]	; 0x78
 800479e:	4414      	add	r4, r2
 80047a0:	9410      	str	r4, [sp, #64]	; 0x40
 80047a2:	dd78      	ble.n	8004896 <_svfprintf_r+0x144e>
 80047a4:	9b10      	ldr	r3, [sp, #64]	; 0x40
 80047a6:	2400      	movs	r4, #0
 80047a8:	9418      	str	r4, [sp, #96]	; 0x60
 80047aa:	3301      	adds	r3, #1
 80047ac:	9310      	str	r3, [sp, #64]	; 0x40
 80047ae:	ea23 73e3 	bic.w	r3, r3, r3, asr #31
 80047b2:	e733      	b.n	800461c <_svfprintf_r+0x11d4>
 80047b4:	980e      	ldr	r0, [sp, #56]	; 0x38
 80047b6:	aa2b      	add	r2, sp, #172	; 0xac
 80047b8:	990b      	ldr	r1, [sp, #44]	; 0x2c
 80047ba:	f002 fae9 	bl	8006d90 <__ssprint_r>
 80047be:	2800      	cmp	r0, #0
 80047c0:	f47e af27 	bne.w	8003612 <_svfprintf_r+0x1ca>
 80047c4:	9925      	ldr	r1, [sp, #148]	; 0x94
 80047c6:	af38      	add	r7, sp, #224	; 0xe0
 80047c8:	9a2d      	ldr	r2, [sp, #180]	; 0xb4
 80047ca:	9b2c      	ldr	r3, [sp, #176]	; 0xb0
 80047cc:	e638      	b.n	8004440 <_svfprintf_r+0xff8>
 80047ce:	9d18      	ldr	r5, [sp, #96]	; 0x60
 80047d0:	9c11      	ldr	r4, [sp, #68]	; 0x44
 80047d2:	2d00      	cmp	r5, #0
 80047d4:	bfd4      	ite	le
 80047d6:	f1c5 0302 	rsble	r3, r5, #2
 80047da:	2301      	movgt	r3, #1
 80047dc:	441c      	add	r4, r3
 80047de:	2567      	movs	r5, #103	; 0x67
 80047e0:	9410      	str	r4, [sp, #64]	; 0x40
 80047e2:	ea24 73e4 	bic.w	r3, r4, r4, asr #31
 80047e6:	9516      	str	r5, [sp, #88]	; 0x58
 80047e8:	e718      	b.n	800461c <_svfprintf_r+0x11d4>
 80047ea:	2002      	movs	r0, #2
 80047ec:	e699      	b.n	8004522 <_svfprintf_r+0x10da>
 80047ee:	9d25      	ldr	r5, [sp, #148]	; 0x94
 80047f0:	2d00      	cmp	r5, #0
 80047f2:	9518      	str	r5, [sp, #96]	; 0x60
 80047f4:	dd58      	ble.n	80048a8 <_svfprintf_r+0x1460>
 80047f6:	9c0c      	ldr	r4, [sp, #48]	; 0x30
 80047f8:	2c00      	cmp	r4, #0
 80047fa:	d144      	bne.n	8004886 <_svfprintf_r+0x143e>
 80047fc:	9d0a      	ldr	r5, [sp, #40]	; 0x28
 80047fe:	07ed      	lsls	r5, r5, #31
 8004800:	d441      	bmi.n	8004886 <_svfprintf_r+0x143e>
 8004802:	9c18      	ldr	r4, [sp, #96]	; 0x60
 8004804:	ea24 73e4 	bic.w	r3, r4, r4, asr #31
 8004808:	9410      	str	r4, [sp, #64]	; 0x40
 800480a:	e707      	b.n	800461c <_svfprintf_r+0x11d4>
 800480c:	f246 6167 	movw	r1, #26215	; 0x6667
 8004810:	f10d 05aa 	add.w	r5, sp, #170	; 0xaa
 8004814:	f2c6 6166 	movt	r1, #26214	; 0x6666
 8004818:	fb81 2003 	smull	r2, r0, r1, r3
 800481c:	17da      	asrs	r2, r3, #31
 800481e:	462c      	mov	r4, r5
 8004820:	3d01      	subs	r5, #1
 8004822:	ebc2 02a0 	rsb	r2, r2, r0, asr #2
 8004826:	eb02 0082 	add.w	r0, r2, r2, lsl #2
 800482a:	eba3 0040 	sub.w	r0, r3, r0, lsl #1
 800482e:	4613      	mov	r3, r2
 8004830:	2b09      	cmp	r3, #9
 8004832:	f100 0230 	add.w	r2, r0, #48	; 0x30
 8004836:	7022      	strb	r2, [r4, #0]
 8004838:	dcee      	bgt.n	8004818 <_svfprintf_r+0x13d0>
 800483a:	f10d 00ab 	add.w	r0, sp, #171	; 0xab
 800483e:	3330      	adds	r3, #48	; 0x30
 8004840:	42a8      	cmp	r0, r5
 8004842:	b2da      	uxtb	r2, r3
 8004844:	f804 2c01 	strb.w	r2, [r4, #-1]
 8004848:	d953      	bls.n	80048f2 <_svfprintf_r+0x14aa>
 800484a:	f10d 019d 	add.w	r1, sp, #157	; 0x9d
 800484e:	4623      	mov	r3, r4
 8004850:	e001      	b.n	8004856 <_svfprintf_r+0x140e>
 8004852:	f813 2b01 	ldrb.w	r2, [r3], #1
 8004856:	4283      	cmp	r3, r0
 8004858:	f801 2f01 	strb.w	r2, [r1, #1]!
 800485c:	d1f9      	bne.n	8004852 <_svfprintf_r+0x140a>
 800485e:	ad48      	add	r5, sp, #288	; 0x120
 8004860:	ebc4 0345 	rsb	r3, r4, r5, lsl #1
 8004864:	3bf6      	subs	r3, #246	; 0xf6
 8004866:	e794      	b.n	8004792 <_svfprintf_r+0x134a>
 8004868:	981b      	ldr	r0, [sp, #108]	; 0x6c
 800486a:	2200      	movs	r2, #0
 800486c:	2300      	movs	r3, #0
 800486e:	4651      	mov	r1, sl
 8004870:	f004 fa54 	bl	8008d1c <__aeabi_dcmpeq>
 8004874:	2800      	cmp	r0, #0
 8004876:	f47f ae73 	bne.w	8004560 <_svfprintf_r+0x1118>
 800487a:	980c      	ldr	r0, [sp, #48]	; 0x30
 800487c:	f1c0 0301 	rsb	r3, r0, #1
 8004880:	9325      	str	r3, [sp, #148]	; 0x94
 8004882:	441c      	add	r4, r3
 8004884:	e692      	b.n	80045ac <_svfprintf_r+0x1164>
 8004886:	9d0c      	ldr	r5, [sp, #48]	; 0x30
 8004888:	9c18      	ldr	r4, [sp, #96]	; 0x60
 800488a:	1c6b      	adds	r3, r5, #1
 800488c:	441c      	add	r4, r3
 800488e:	9410      	str	r4, [sp, #64]	; 0x40
 8004890:	ea24 73e4 	bic.w	r3, r4, r4, asr #31
 8004894:	e6c2      	b.n	800461c <_svfprintf_r+0x11d4>
 8004896:	9c0a      	ldr	r4, [sp, #40]	; 0x28
 8004898:	f014 0301 	ands.w	r3, r4, #1
 800489c:	d182      	bne.n	80047a4 <_svfprintf_r+0x135c>
 800489e:	9d10      	ldr	r5, [sp, #64]	; 0x40
 80048a0:	9318      	str	r3, [sp, #96]	; 0x60
 80048a2:	ea25 73e5 	bic.w	r3, r5, r5, asr #31
 80048a6:	e6b9      	b.n	800461c <_svfprintf_r+0x11d4>
 80048a8:	9d0c      	ldr	r5, [sp, #48]	; 0x30
 80048aa:	b935      	cbnz	r5, 80048ba <_svfprintf_r+0x1472>
 80048ac:	9c0a      	ldr	r4, [sp, #40]	; 0x28
 80048ae:	07e4      	lsls	r4, r4, #31
 80048b0:	bf5c      	itt	pl
 80048b2:	2301      	movpl	r3, #1
 80048b4:	9310      	strpl	r3, [sp, #64]	; 0x40
 80048b6:	f57f aeb1 	bpl.w	800461c <_svfprintf_r+0x11d4>
 80048ba:	9d0c      	ldr	r5, [sp, #48]	; 0x30
 80048bc:	3502      	adds	r5, #2
 80048be:	9510      	str	r5, [sp, #64]	; 0x40
 80048c0:	ea25 73e5 	bic.w	r3, r5, r5, asr #31
 80048c4:	e6aa      	b.n	800461c <_svfprintf_r+0x11d4>
 80048c6:	9d14      	ldr	r5, [sp, #80]	; 0x50
 80048c8:	f899 3001 	ldrb.w	r3, [r9, #1]
 80048cc:	46a1      	mov	r9, r4
 80048ce:	682d      	ldr	r5, [r5, #0]
 80048d0:	950c      	str	r5, [sp, #48]	; 0x30
 80048d2:	9d14      	ldr	r5, [sp, #80]	; 0x50
 80048d4:	1d29      	adds	r1, r5, #4
 80048d6:	9d0c      	ldr	r5, [sp, #48]	; 0x30
 80048d8:	9114      	str	r1, [sp, #80]	; 0x50
 80048da:	2d00      	cmp	r5, #0
 80048dc:	f6be ae1d 	bge.w	800351a <_svfprintf_r+0xd2>
 80048e0:	f7fe be18 	b.w	8003514 <_svfprintf_r+0xcc>
 80048e4:	9d0e      	ldr	r5, [sp, #56]	; 0x38
 80048e6:	230c      	movs	r3, #12
 80048e8:	f04f 30ff 	mov.w	r0, #4294967295
 80048ec:	602b      	str	r3, [r5, #0]
 80048ee:	f7fe be98 	b.w	8003622 <_svfprintf_r+0x1da>
 80048f2:	f10d 039e 	add.w	r3, sp, #158	; 0x9e
 80048f6:	e74c      	b.n	8004792 <_svfprintf_r+0x134a>
 80048f8:	9b25      	ldr	r3, [sp, #148]	; 0x94
 80048fa:	e735      	b.n	8004768 <_svfprintf_r+0x1320>
 80048fc:	0000      	movs	r0, r0
	...

08004900 <quorem>:
 8004900:	e92d 4ff0 	stmdb	sp!, {r4, r5, r6, r7, r8, r9, sl, fp, lr}
 8004904:	468c      	mov	ip, r1
 8004906:	6903      	ldr	r3, [r0, #16]
 8004908:	4683      	mov	fp, r0
 800490a:	690d      	ldr	r5, [r1, #16]
 800490c:	b085      	sub	sp, #20
 800490e:	429d      	cmp	r5, r3
 8004910:	bfc8      	it	gt
 8004912:	2000      	movgt	r0, #0
 8004914:	f300 8096 	bgt.w	8004a44 <quorem+0x144>
 8004918:	3d01      	subs	r5, #1
 800491a:	f101 0414 	add.w	r4, r1, #20
 800491e:	f10b 0a14 	add.w	sl, fp, #20
 8004922:	f854 1025 	ldr.w	r1, [r4, r5, lsl #2]
 8004926:	00aa      	lsls	r2, r5, #2
 8004928:	f85a 0025 	ldr.w	r0, [sl, r5, lsl #2]
 800492c:	4691      	mov	r9, r2
 800492e:	3101      	adds	r1, #1
 8004930:	9202      	str	r2, [sp, #8]
 8004932:	f8cd c004 	str.w	ip, [sp, #4]
 8004936:	4452      	add	r2, sl
 8004938:	9203      	str	r2, [sp, #12]
 800493a:	f003 fc91 	bl	8008260 <__aeabi_uidiv>
 800493e:	44a1      	add	r9, r4
 8004940:	f8dd c004 	ldr.w	ip, [sp, #4]
 8004944:	4680      	mov	r8, r0
 8004946:	2800      	cmp	r0, #0
 8004948:	d041      	beq.n	80049ce <quorem+0xce>
 800494a:	2100      	movs	r1, #0
 800494c:	4622      	mov	r2, r4
 800494e:	4608      	mov	r0, r1
 8004950:	4653      	mov	r3, sl
 8004952:	460f      	mov	r7, r1
 8004954:	f852 1b04 	ldr.w	r1, [r2], #4
 8004958:	681e      	ldr	r6, [r3, #0]
 800495a:	4591      	cmp	r9, r2
 800495c:	fa1f fe81 	uxth.w	lr, r1
 8004960:	ea4f 4111 	mov.w	r1, r1, lsr #16
 8004964:	fb0e 7708 	mla	r7, lr, r8, r7
 8004968:	fa1f fe86 	uxth.w	lr, r6
 800496c:	fb01 f108 	mul.w	r1, r1, r8
 8004970:	eb01 4117 	add.w	r1, r1, r7, lsr #16
 8004974:	b2bf      	uxth	r7, r7
 8004976:	ebc7 0000 	rsb	r0, r7, r0
 800497a:	4486      	add	lr, r0
 800497c:	b288      	uxth	r0, r1
 800497e:	ebc0 4016 	rsb	r0, r0, r6, lsr #16
 8004982:	ea4f 4711 	mov.w	r7, r1, lsr #16
 8004986:	eb00 402e 	add.w	r0, r0, lr, asr #16
 800498a:	fa1f fe8e 	uxth.w	lr, lr
 800498e:	ea4e 4100 	orr.w	r1, lr, r0, lsl #16
 8004992:	ea4f 4020 	mov.w	r0, r0, asr #16
 8004996:	f843 1b04 	str.w	r1, [r3], #4
 800499a:	d2db      	bcs.n	8004954 <quorem+0x54>
 800499c:	9a02      	ldr	r2, [sp, #8]
 800499e:	f85a 3002 	ldr.w	r3, [sl, r2]
 80049a2:	b9a3      	cbnz	r3, 80049ce <quorem+0xce>
 80049a4:	9a03      	ldr	r2, [sp, #12]
 80049a6:	1f13      	subs	r3, r2, #4
 80049a8:	459a      	cmp	sl, r3
 80049aa:	d20e      	bcs.n	80049ca <quorem+0xca>
 80049ac:	f852 3c04 	ldr.w	r3, [r2, #-4]
 80049b0:	b95b      	cbnz	r3, 80049ca <quorem+0xca>
 80049b2:	f1a2 0308 	sub.w	r3, r2, #8
 80049b6:	e001      	b.n	80049bc <quorem+0xbc>
 80049b8:	6812      	ldr	r2, [r2, #0]
 80049ba:	b932      	cbnz	r2, 80049ca <quorem+0xca>
 80049bc:	459a      	cmp	sl, r3
 80049be:	461a      	mov	r2, r3
 80049c0:	f105 35ff 	add.w	r5, r5, #4294967295
 80049c4:	f1a3 0304 	sub.w	r3, r3, #4
 80049c8:	d3f6      	bcc.n	80049b8 <quorem+0xb8>
 80049ca:	f8cb 5010 	str.w	r5, [fp, #16]
 80049ce:	4661      	mov	r1, ip
 80049d0:	4658      	mov	r0, fp
 80049d2:	f001 fe47 	bl	8006664 <__mcmp>
 80049d6:	2800      	cmp	r0, #0
 80049d8:	db33      	blt.n	8004a42 <quorem+0x142>
 80049da:	f108 0801 	add.w	r8, r8, #1
 80049de:	4653      	mov	r3, sl
 80049e0:	2200      	movs	r2, #0
 80049e2:	f854 6b04 	ldr.w	r6, [r4], #4
 80049e6:	6818      	ldr	r0, [r3, #0]
 80049e8:	45a1      	cmp	r9, r4
 80049ea:	b2b1      	uxth	r1, r6
 80049ec:	ea4f 4616 	mov.w	r6, r6, lsr #16
 80049f0:	ebc1 0202 	rsb	r2, r1, r2
 80049f4:	b287      	uxth	r7, r0
 80049f6:	eb02 0107 	add.w	r1, r2, r7
 80049fa:	ebc6 4210 	rsb	r2, r6, r0, lsr #16
 80049fe:	eb02 4221 	add.w	r2, r2, r1, asr #16
 8004a02:	b289      	uxth	r1, r1
 8004a04:	ea41 4102 	orr.w	r1, r1, r2, lsl #16
 8004a08:	ea4f 4222 	mov.w	r2, r2, asr #16
 8004a0c:	f843 1b04 	str.w	r1, [r3], #4
 8004a10:	d2e7      	bcs.n	80049e2 <quorem+0xe2>
 8004a12:	f85a 2025 	ldr.w	r2, [sl, r5, lsl #2]
 8004a16:	eb0a 0385 	add.w	r3, sl, r5, lsl #2
 8004a1a:	b992      	cbnz	r2, 8004a42 <quorem+0x142>
 8004a1c:	1f1a      	subs	r2, r3, #4
 8004a1e:	4592      	cmp	sl, r2
 8004a20:	d20d      	bcs.n	8004a3e <quorem+0x13e>
 8004a22:	f853 2c04 	ldr.w	r2, [r3, #-4]
 8004a26:	b952      	cbnz	r2, 8004a3e <quorem+0x13e>
 8004a28:	3b08      	subs	r3, #8
 8004a2a:	e001      	b.n	8004a30 <quorem+0x130>
 8004a2c:	6812      	ldr	r2, [r2, #0]
 8004a2e:	b932      	cbnz	r2, 8004a3e <quorem+0x13e>
 8004a30:	459a      	cmp	sl, r3
 8004a32:	461a      	mov	r2, r3
 8004a34:	f105 35ff 	add.w	r5, r5, #4294967295
 8004a38:	f1a3 0304 	sub.w	r3, r3, #4
 8004a3c:	d3f6      	bcc.n	8004a2c <quorem+0x12c>
 8004a3e:	f8cb 5010 	str.w	r5, [fp, #16]
 8004a42:	4640      	mov	r0, r8
 8004a44:	b005      	add	sp, #20
 8004a46:	e8bd 8ff0 	ldmia.w	sp!, {r4, r5, r6, r7, r8, r9, sl, fp, pc}
 8004a4a:	bf00      	nop

08004a4c <_dtoa_r>:
 8004a4c:	e92d 4ff0 	stmdb	sp!, {r4, r5, r6, r7, r8, r9, sl, fp, lr}
 8004a50:	b09b      	sub	sp, #108	; 0x6c
 8004a52:	6a46      	ldr	r6, [r0, #36]	; 0x24
 8004a54:	4604      	mov	r4, r0
 8004a56:	4692      	mov	sl, r2
 8004a58:	469b      	mov	fp, r3
 8004a5a:	9d27      	ldr	r5, [sp, #156]	; 0x9c
 8004a5c:	2e00      	cmp	r6, #0
 8004a5e:	f000 82bb 	beq.w	8004fd8 <_dtoa_r+0x58c>
 8004a62:	6833      	ldr	r3, [r6, #0]
 8004a64:	b153      	cbz	r3, 8004a7c <_dtoa_r+0x30>
 8004a66:	6872      	ldr	r2, [r6, #4]
 8004a68:	2601      	movs	r6, #1
 8004a6a:	4619      	mov	r1, r3
 8004a6c:	4096      	lsls	r6, r2
 8004a6e:	609e      	str	r6, [r3, #8]
 8004a70:	605a      	str	r2, [r3, #4]
 8004a72:	f001 fb9d 	bl	80061b0 <_Bfree>
 8004a76:	6a63      	ldr	r3, [r4, #36]	; 0x24
 8004a78:	2200      	movs	r2, #0
 8004a7a:	601a      	str	r2, [r3, #0]
 8004a7c:	f1bb 0f00 	cmp.w	fp, #0
 8004a80:	bfb4      	ite	lt
 8004a82:	2301      	movlt	r3, #1
 8004a84:	2300      	movge	r3, #0
 8004a86:	602b      	str	r3, [r5, #0]
 8004a88:	f04f 0300 	mov.w	r3, #0
 8004a8c:	bfb4      	ite	lt
 8004a8e:	f02b 4900 	biclt.w	r9, fp, #2147483648	; 0x80000000
 8004a92:	46d9      	movge	r9, fp
 8004a94:	461a      	mov	r2, r3
 8004a96:	f6c7 73f0 	movt	r3, #32752	; 0x7ff0
 8004a9a:	f6c7 72f0 	movt	r2, #32752	; 0x7ff0
 8004a9e:	ea09 0303 	and.w	r3, r9, r3
 8004aa2:	bfb8      	it	lt
 8004aa4:	46cb      	movlt	fp, r9
 8004aa6:	4293      	cmp	r3, r2
 8004aa8:	d014      	beq.n	8004ad4 <_dtoa_r+0x88>
 8004aaa:	2200      	movs	r2, #0
 8004aac:	2300      	movs	r3, #0
 8004aae:	4650      	mov	r0, sl
 8004ab0:	4659      	mov	r1, fp
 8004ab2:	f004 f933 	bl	8008d1c <__aeabi_dcmpeq>
 8004ab6:	4680      	mov	r8, r0
 8004ab8:	b328      	cbz	r0, 8004b06 <_dtoa_r+0xba>
 8004aba:	9e26      	ldr	r6, [sp, #152]	; 0x98
 8004abc:	2301      	movs	r3, #1
 8004abe:	6033      	str	r3, [r6, #0]
 8004ac0:	9e28      	ldr	r6, [sp, #160]	; 0xa0
 8004ac2:	2e00      	cmp	r6, #0
 8004ac4:	f000 80dc 	beq.w	8004c80 <_dtoa_r+0x234>
 8004ac8:	4baf      	ldr	r3, [pc, #700]	; (8004d88 <_dtoa_r+0x33c>)
 8004aca:	1e58      	subs	r0, r3, #1
 8004acc:	6033      	str	r3, [r6, #0]
 8004ace:	b01b      	add	sp, #108	; 0x6c
 8004ad0:	e8bd 8ff0 	ldmia.w	sp!, {r4, r5, r6, r7, r8, r9, sl, fp, pc}
 8004ad4:	9e26      	ldr	r6, [sp, #152]	; 0x98
 8004ad6:	f249 6090 	movw	r0, #38544	; 0x9690
 8004ada:	f242 730f 	movw	r3, #9999	; 0x270f
 8004ade:	f6c0 0000 	movt	r0, #2048	; 0x800
 8004ae2:	6033      	str	r3, [r6, #0]
 8004ae4:	f1ba 0f00 	cmp.w	sl, #0
 8004ae8:	f000 80aa 	beq.w	8004c40 <_dtoa_r+0x1f4>
 8004aec:	9e28      	ldr	r6, [sp, #160]	; 0xa0
 8004aee:	2e00      	cmp	r6, #0
 8004af0:	d0ed      	beq.n	8004ace <_dtoa_r+0x82>
 8004af2:	78c3      	ldrb	r3, [r0, #3]
 8004af4:	2b00      	cmp	r3, #0
 8004af6:	f040 80b2 	bne.w	8004c5e <_dtoa_r+0x212>
 8004afa:	1cc3      	adds	r3, r0, #3
 8004afc:	9e28      	ldr	r6, [sp, #160]	; 0xa0
 8004afe:	6033      	str	r3, [r6, #0]
 8004b00:	b01b      	add	sp, #108	; 0x6c
 8004b02:	e8bd 8ff0 	ldmia.w	sp!, {r4, r5, r6, r7, r8, r9, sl, fp, pc}
 8004b06:	aa19      	add	r2, sp, #100	; 0x64
 8004b08:	ab18      	add	r3, sp, #96	; 0x60
 8004b0a:	9200      	str	r2, [sp, #0]
 8004b0c:	4620      	mov	r0, r4
 8004b0e:	9301      	str	r3, [sp, #4]
 8004b10:	4652      	mov	r2, sl
 8004b12:	465b      	mov	r3, fp
 8004b14:	f001 feb6 	bl	8006884 <__d2b>
 8004b18:	ea5f 5519 	movs.w	r5, r9, lsr #20
 8004b1c:	900b      	str	r0, [sp, #44]	; 0x2c
 8004b1e:	f040 80a1 	bne.w	8004c64 <_dtoa_r+0x218>
 8004b22:	9f18      	ldr	r7, [sp, #96]	; 0x60
 8004b24:	f46f 6382 	mvn.w	r3, #1040	; 0x410
 8004b28:	9d19      	ldr	r5, [sp, #100]	; 0x64
 8004b2a:	443d      	add	r5, r7
 8004b2c:	429d      	cmp	r5, r3
 8004b2e:	f2c0 8278 	blt.w	8005022 <_dtoa_r+0x5d6>
 8004b32:	f64f 430e 	movw	r3, #64526	; 0xfc0e
 8004b36:	f205 4212 	addw	r2, r5, #1042	; 0x412
 8004b3a:	f6cf 73ff 	movt	r3, #65535	; 0xffff
 8004b3e:	fa2a f202 	lsr.w	r2, sl, r2
 8004b42:	1b5b      	subs	r3, r3, r5
 8004b44:	fa09 f003 	lsl.w	r0, r9, r3
 8004b48:	4310      	orrs	r0, r2
 8004b4a:	f003 fe09 	bl	8008760 <__aeabi_ui2d>
 8004b4e:	3d01      	subs	r5, #1
 8004b50:	46b8      	mov	r8, r7
 8004b52:	2601      	movs	r6, #1
 8004b54:	9615      	str	r6, [sp, #84]	; 0x54
 8004b56:	f1a1 71f8 	sub.w	r1, r1, #32505856	; 0x1f00000
 8004b5a:	2300      	movs	r3, #0
 8004b5c:	2200      	movs	r2, #0
 8004b5e:	f6c3 73f8 	movt	r3, #16376	; 0x3ff8
 8004b62:	f003 fcbf 	bl	80084e4 <__aeabi_dsub>
 8004b66:	a382      	add	r3, pc, #520	; (adr r3, 8004d70 <_dtoa_r+0x324>)
 8004b68:	e9d3 2300 	ldrd	r2, r3, [r3]
 8004b6c:	f003 fe6e 	bl	800884c <__aeabi_dmul>
 8004b70:	a381      	add	r3, pc, #516	; (adr r3, 8004d78 <_dtoa_r+0x32c>)
 8004b72:	e9d3 2300 	ldrd	r2, r3, [r3]
 8004b76:	f003 fcb7 	bl	80084e8 <__adddf3>
 8004b7a:	4606      	mov	r6, r0
 8004b7c:	4628      	mov	r0, r5
 8004b7e:	460f      	mov	r7, r1
 8004b80:	f003 fdfe 	bl	8008780 <__aeabi_i2d>
 8004b84:	a37e      	add	r3, pc, #504	; (adr r3, 8004d80 <_dtoa_r+0x334>)
 8004b86:	e9d3 2300 	ldrd	r2, r3, [r3]
 8004b8a:	f003 fe5f 	bl	800884c <__aeabi_dmul>
 8004b8e:	4602      	mov	r2, r0
 8004b90:	460b      	mov	r3, r1
 8004b92:	4630      	mov	r0, r6
 8004b94:	4639      	mov	r1, r7
 8004b96:	f003 fca7 	bl	80084e8 <__adddf3>
 8004b9a:	4606      	mov	r6, r0
 8004b9c:	460f      	mov	r7, r1
 8004b9e:	f004 f8ef 	bl	8008d80 <__aeabi_d2iz>
 8004ba2:	4639      	mov	r1, r7
 8004ba4:	2200      	movs	r2, #0
 8004ba6:	2300      	movs	r3, #0
 8004ba8:	9004      	str	r0, [sp, #16]
 8004baa:	4630      	mov	r0, r6
 8004bac:	f004 f8c0 	bl	8008d30 <__aeabi_dcmplt>
 8004bb0:	2800      	cmp	r0, #0
 8004bb2:	f040 8226 	bne.w	8005002 <_dtoa_r+0x5b6>
 8004bb6:	9e04      	ldr	r6, [sp, #16]
 8004bb8:	2e16      	cmp	r6, #22
 8004bba:	bf84      	itt	hi
 8004bbc:	2601      	movhi	r6, #1
 8004bbe:	960f      	strhi	r6, [sp, #60]	; 0x3c
 8004bc0:	d812      	bhi.n	8004be8 <_dtoa_r+0x19c>
 8004bc2:	f249 41f0 	movw	r1, #38128	; 0x94f0
 8004bc6:	4652      	mov	r2, sl
 8004bc8:	f6c0 0100 	movt	r1, #2048	; 0x800
 8004bcc:	465b      	mov	r3, fp
 8004bce:	eb01 01c6 	add.w	r1, r1, r6, lsl #3
 8004bd2:	e9d1 0100 	ldrd	r0, r1, [r1]
 8004bd6:	f004 f8c9 	bl	8008d6c <__aeabi_dcmpgt>
 8004bda:	2800      	cmp	r0, #0
 8004bdc:	f000 821f 	beq.w	800501e <_dtoa_r+0x5d2>
 8004be0:	3e01      	subs	r6, #1
 8004be2:	9604      	str	r6, [sp, #16]
 8004be4:	2600      	movs	r6, #0
 8004be6:	960f      	str	r6, [sp, #60]	; 0x3c
 8004be8:	ebc5 0508 	rsb	r5, r5, r8
 8004bec:	3d01      	subs	r5, #1
 8004bee:	9506      	str	r5, [sp, #24]
 8004bf0:	bf49      	itett	mi
 8004bf2:	426e      	negmi	r6, r5
 8004bf4:	2600      	movpl	r6, #0
 8004bf6:	960a      	strmi	r6, [sp, #40]	; 0x28
 8004bf8:	2600      	movmi	r6, #0
 8004bfa:	bf54      	ite	pl
 8004bfc:	960a      	strpl	r6, [sp, #40]	; 0x28
 8004bfe:	9606      	strmi	r6, [sp, #24]
 8004c00:	9e04      	ldr	r6, [sp, #16]
 8004c02:	2e00      	cmp	r6, #0
 8004c04:	f2c0 81f1 	blt.w	8004fea <_dtoa_r+0x59e>
 8004c08:	f8dd e018 	ldr.w	lr, [sp, #24]
 8004c0c:	960e      	str	r6, [sp, #56]	; 0x38
 8004c0e:	44b6      	add	lr, r6
 8004c10:	2600      	movs	r6, #0
 8004c12:	f8cd e018 	str.w	lr, [sp, #24]
 8004c16:	960c      	str	r6, [sp, #48]	; 0x30
 8004c18:	9e24      	ldr	r6, [sp, #144]	; 0x90
 8004c1a:	2e09      	cmp	r6, #9
 8004c1c:	d835      	bhi.n	8004c8a <_dtoa_r+0x23e>
 8004c1e:	2e05      	cmp	r6, #5
 8004c20:	bfc4      	itt	gt
 8004c22:	3e04      	subgt	r6, #4
 8004c24:	9624      	strgt	r6, [sp, #144]	; 0x90
 8004c26:	9e24      	ldr	r6, [sp, #144]	; 0x90
 8004c28:	bfcc      	ite	gt
 8004c2a:	2500      	movgt	r5, #0
 8004c2c:	2501      	movle	r5, #1
 8004c2e:	1eb3      	subs	r3, r6, #2
 8004c30:	2b03      	cmp	r3, #3
 8004c32:	d82c      	bhi.n	8004c8e <_dtoa_r+0x242>
 8004c34:	e8df f013 	tbh	[pc, r3, lsl #1]
 8004c38:	02290361 	eoreq	r0, r9, #-2080374783	; 0x84000001
 8004c3c:	058d0370 	streq	r0, [sp, #880]	; 0x370
 8004c40:	f249 6284 	movw	r2, #38532	; 0x9684
 8004c44:	f249 6390 	movw	r3, #38544	; 0x9690
 8004c48:	f3c9 0013 	ubfx	r0, r9, #0, #20
 8004c4c:	f6c0 0200 	movt	r2, #2048	; 0x800
 8004c50:	f6c0 0300 	movt	r3, #2048	; 0x800
 8004c54:	2800      	cmp	r0, #0
 8004c56:	bf0c      	ite	eq
 8004c58:	4610      	moveq	r0, r2
 8004c5a:	4618      	movne	r0, r3
 8004c5c:	e746      	b.n	8004aec <_dtoa_r+0xa0>
 8004c5e:	f100 0308 	add.w	r3, r0, #8
 8004c62:	e74b      	b.n	8004afc <_dtoa_r+0xb0>
 8004c64:	f3cb 0313 	ubfx	r3, fp, #0, #20
 8004c68:	f8cd 8054 	str.w	r8, [sp, #84]	; 0x54
 8004c6c:	f043 537f 	orr.w	r3, r3, #1069547520	; 0x3fc00000
 8004c70:	4650      	mov	r0, sl
 8004c72:	f2a5 35ff 	subw	r5, r5, #1023	; 0x3ff
 8004c76:	f8dd 8060 	ldr.w	r8, [sp, #96]	; 0x60
 8004c7a:	f443 1140 	orr.w	r1, r3, #3145728	; 0x300000
 8004c7e:	e76c      	b.n	8004b5a <_dtoa_r+0x10e>
 8004c80:	f249 6080 	movw	r0, #38528	; 0x9680
 8004c84:	f6c0 0000 	movt	r0, #2048	; 0x800
 8004c88:	e721      	b.n	8004ace <_dtoa_r+0x82>
 8004c8a:	2600      	movs	r6, #0
 8004c8c:	9624      	str	r6, [sp, #144]	; 0x90
 8004c8e:	6a65      	ldr	r5, [r4, #36]	; 0x24
 8004c90:	2300      	movs	r3, #0
 8004c92:	4619      	mov	r1, r3
 8004c94:	4620      	mov	r0, r4
 8004c96:	f04f 36ff 	mov.w	r6, #4294967295
 8004c9a:	9325      	str	r3, [sp, #148]	; 0x94
 8004c9c:	606b      	str	r3, [r5, #4]
 8004c9e:	9609      	str	r6, [sp, #36]	; 0x24
 8004ca0:	9614      	str	r6, [sp, #80]	; 0x50
 8004ca2:	f001 fa4f 	bl	8006144 <_Balloc>
 8004ca6:	6a63      	ldr	r3, [r4, #36]	; 0x24
 8004ca8:	2601      	movs	r6, #1
 8004caa:	960d      	str	r6, [sp, #52]	; 0x34
 8004cac:	6028      	str	r0, [r5, #0]
 8004cae:	681b      	ldr	r3, [r3, #0]
 8004cb0:	9308      	str	r3, [sp, #32]
 8004cb2:	9b19      	ldr	r3, [sp, #100]	; 0x64
 8004cb4:	2b00      	cmp	r3, #0
 8004cb6:	f2c0 80c7 	blt.w	8004e48 <_dtoa_r+0x3fc>
 8004cba:	9e04      	ldr	r6, [sp, #16]
 8004cbc:	2e0e      	cmp	r6, #14
 8004cbe:	f300 80c3 	bgt.w	8004e48 <_dtoa_r+0x3fc>
 8004cc2:	f8dd e094 	ldr.w	lr, [sp, #148]	; 0x94
 8004cc6:	f249 43f0 	movw	r3, #38128	; 0x94f0
 8004cca:	9e09      	ldr	r6, [sp, #36]	; 0x24
 8004ccc:	f6c0 0300 	movt	r3, #2048	; 0x800
 8004cd0:	ea4f 72de 	mov.w	r2, lr, lsr #31
 8004cd4:	2e00      	cmp	r6, #0
 8004cd6:	bfcc      	ite	gt
 8004cd8:	2200      	movgt	r2, #0
 8004cda:	f002 0201 	andle.w	r2, r2, #1
 8004cde:	9e04      	ldr	r6, [sp, #16]
 8004ce0:	eb03 03c6 	add.w	r3, r3, r6, lsl #3
 8004ce4:	e9d3 0100 	ldrd	r0, r1, [r3]
 8004ce8:	e9cd 0106 	strd	r0, r1, [sp, #24]
 8004cec:	2a00      	cmp	r2, #0
 8004cee:	f040 846e 	bne.w	80055ce <_dtoa_r+0xb82>
 8004cf2:	4602      	mov	r2, r0
 8004cf4:	460b      	mov	r3, r1
 8004cf6:	4650      	mov	r0, sl
 8004cf8:	4659      	mov	r1, fp
 8004cfa:	f003 fed1 	bl	8008aa0 <__aeabi_ddiv>
 8004cfe:	9e08      	ldr	r6, [sp, #32]
 8004d00:	f004 f83e 	bl	8008d80 <__aeabi_d2iz>
 8004d04:	1c75      	adds	r5, r6, #1
 8004d06:	4680      	mov	r8, r0
 8004d08:	f003 fd3a 	bl	8008780 <__aeabi_i2d>
 8004d0c:	e9dd 2306 	ldrd	r2, r3, [sp, #24]
 8004d10:	f003 fd9c 	bl	800884c <__aeabi_dmul>
 8004d14:	4602      	mov	r2, r0
 8004d16:	460b      	mov	r3, r1
 8004d18:	4650      	mov	r0, sl
 8004d1a:	4659      	mov	r1, fp
 8004d1c:	f003 fbe2 	bl	80084e4 <__aeabi_dsub>
 8004d20:	9a09      	ldr	r2, [sp, #36]	; 0x24
 8004d22:	f8dd e020 	ldr.w	lr, [sp, #32]
 8004d26:	f108 0330 	add.w	r3, r8, #48	; 0x30
 8004d2a:	2a01      	cmp	r2, #1
 8004d2c:	f88e 3000 	strb.w	r3, [lr]
 8004d30:	4606      	mov	r6, r0
 8004d32:	460f      	mov	r7, r1
 8004d34:	d05b      	beq.n	8004dee <_dtoa_r+0x3a2>
 8004d36:	2300      	movs	r3, #0
 8004d38:	2200      	movs	r2, #0
 8004d3a:	f2c4 0324 	movt	r3, #16420	; 0x4024
 8004d3e:	f003 fd85 	bl	800884c <__aeabi_dmul>
 8004d42:	2200      	movs	r2, #0
 8004d44:	2300      	movs	r3, #0
 8004d46:	4606      	mov	r6, r0
 8004d48:	460f      	mov	r7, r1
 8004d4a:	f003 ffe7 	bl	8008d1c <__aeabi_dcmpeq>
 8004d4e:	2800      	cmp	r0, #0
 8004d50:	f040 8519 	bne.w	8005786 <_dtoa_r+0xd3a>
 8004d54:	f8dd a020 	ldr.w	sl, [sp, #32]
 8004d58:	9809      	ldr	r0, [sp, #36]	; 0x24
 8004d5a:	9908      	ldr	r1, [sp, #32]
 8004d5c:	4482      	add	sl, r0
 8004d5e:	f8cd a00c 	str.w	sl, [sp, #12]
 8004d62:	f101 0902 	add.w	r9, r1, #2
 8004d66:	e9dd ab06 	ldrd	sl, fp, [sp, #24]
 8004d6a:	e01a      	b.n	8004da2 <_dtoa_r+0x356>
 8004d6c:	f3af 8000 	nop.w
 8004d70:	636f4361 	cmnvs	pc, #-2080374783	; 0x84000001
 8004d74:	3fd287a7 	svccc	0x00d287a7
 8004d78:	8b60c8b3 	blhi	983704c <__RW_LOAD_ADDR__+0x182d9ac>
 8004d7c:	3fc68a28 	svccc	0x00c68a28
 8004d80:	509f79fb 			; <UNDEFINED> instruction: 0x509f79fb
 8004d84:	3fd34413 	svccc	0x00d34413
 8004d88:	08009681 	stmdaeq	r0, {r0, r7, r9, sl, ip, pc}
 8004d8c:	f003 fd5e 	bl	800884c <__aeabi_dmul>
 8004d90:	2200      	movs	r2, #0
 8004d92:	2300      	movs	r3, #0
 8004d94:	4606      	mov	r6, r0
 8004d96:	460f      	mov	r7, r1
 8004d98:	f003 ffc0 	bl	8008d1c <__aeabi_dcmpeq>
 8004d9c:	2800      	cmp	r0, #0
 8004d9e:	f040 84f2 	bne.w	8005786 <_dtoa_r+0xd3a>
 8004da2:	4652      	mov	r2, sl
 8004da4:	465b      	mov	r3, fp
 8004da6:	4630      	mov	r0, r6
 8004da8:	4639      	mov	r1, r7
 8004daa:	f003 fe79 	bl	8008aa0 <__aeabi_ddiv>
 8004dae:	464d      	mov	r5, r9
 8004db0:	f003 ffe6 	bl	8008d80 <__aeabi_d2iz>
 8004db4:	4680      	mov	r8, r0
 8004db6:	f003 fce3 	bl	8008780 <__aeabi_i2d>
 8004dba:	4652      	mov	r2, sl
 8004dbc:	465b      	mov	r3, fp
 8004dbe:	f003 fd45 	bl	800884c <__aeabi_dmul>
 8004dc2:	4602      	mov	r2, r0
 8004dc4:	460b      	mov	r3, r1
 8004dc6:	4630      	mov	r0, r6
 8004dc8:	4639      	mov	r1, r7
 8004dca:	f003 fb8b 	bl	80084e4 <__aeabi_dsub>
 8004dce:	f108 0e30 	add.w	lr, r8, #48	; 0x30
 8004dd2:	f809 ec01 	strb.w	lr, [r9, #-1]
 8004dd6:	2300      	movs	r3, #0
 8004dd8:	f8dd e00c 	ldr.w	lr, [sp, #12]
 8004ddc:	2200      	movs	r2, #0
 8004dde:	f2c4 0324 	movt	r3, #16420	; 0x4024
 8004de2:	45f1      	cmp	r9, lr
 8004de4:	f109 0901 	add.w	r9, r9, #1
 8004de8:	4606      	mov	r6, r0
 8004dea:	460f      	mov	r7, r1
 8004dec:	d1ce      	bne.n	8004d8c <_dtoa_r+0x340>
 8004dee:	4632      	mov	r2, r6
 8004df0:	463b      	mov	r3, r7
 8004df2:	4630      	mov	r0, r6
 8004df4:	4639      	mov	r1, r7
 8004df6:	f003 fb77 	bl	80084e8 <__adddf3>
 8004dfa:	4606      	mov	r6, r0
 8004dfc:	460f      	mov	r7, r1
 8004dfe:	4632      	mov	r2, r6
 8004e00:	e9dd 0106 	ldrd	r0, r1, [sp, #24]
 8004e04:	463b      	mov	r3, r7
 8004e06:	f003 ff93 	bl	8008d30 <__aeabi_dcmplt>
 8004e0a:	2800      	cmp	r0, #0
 8004e0c:	f000 8570 	beq.w	80058f0 <_dtoa_r+0xea4>
 8004e10:	f8dd 9020 	ldr.w	r9, [sp, #32]
 8004e14:	9e04      	ldr	r6, [sp, #16]
 8004e16:	462a      	mov	r2, r5
 8004e18:	f815 8c01 	ldrb.w	r8, [r5, #-1]
 8004e1c:	9508      	str	r5, [sp, #32]
 8004e1e:	9616      	str	r6, [sp, #88]	; 0x58
 8004e20:	e005      	b.n	8004e2e <_dtoa_r+0x3e2>
 8004e22:	454b      	cmp	r3, r9
 8004e24:	f000 84b8 	beq.w	8005798 <_dtoa_r+0xd4c>
 8004e28:	f813 8c01 	ldrb.w	r8, [r3, #-1]
 8004e2c:	461a      	mov	r2, r3
 8004e2e:	f1b8 0f39 	cmp.w	r8, #57	; 0x39
 8004e32:	f102 33ff 	add.w	r3, r2, #4294967295
 8004e36:	d0f4      	beq.n	8004e22 <_dtoa_r+0x3d6>
 8004e38:	9e16      	ldr	r6, [sp, #88]	; 0x58
 8004e3a:	9208      	str	r2, [sp, #32]
 8004e3c:	f108 0201 	add.w	r2, r8, #1
 8004e40:	9604      	str	r6, [sp, #16]
 8004e42:	b2d2      	uxtb	r2, r2
 8004e44:	701a      	strb	r2, [r3, #0]
 8004e46:	e0b1      	b.n	8004fac <_dtoa_r+0x560>
 8004e48:	9e0d      	ldr	r6, [sp, #52]	; 0x34
 8004e4a:	2e00      	cmp	r6, #0
 8004e4c:	f040 80f1 	bne.w	8005032 <_dtoa_r+0x5e6>
 8004e50:	9e0c      	ldr	r6, [sp, #48]	; 0x30
 8004e52:	9d0a      	ldr	r5, [sp, #40]	; 0x28
 8004e54:	f8dd 8034 	ldr.w	r8, [sp, #52]	; 0x34
 8004e58:	9806      	ldr	r0, [sp, #24]
 8004e5a:	2800      	cmp	r0, #0
 8004e5c:	bfc8      	it	gt
 8004e5e:	2d00      	cmpgt	r5, #0
 8004e60:	dd09      	ble.n	8004e76 <_dtoa_r+0x42a>
 8004e62:	4603      	mov	r3, r0
 8004e64:	990a      	ldr	r1, [sp, #40]	; 0x28
 8004e66:	42ab      	cmp	r3, r5
 8004e68:	bfa8      	it	ge
 8004e6a:	462b      	movge	r3, r5
 8004e6c:	1aed      	subs	r5, r5, r3
 8004e6e:	1ac9      	subs	r1, r1, r3
 8004e70:	1ac0      	subs	r0, r0, r3
 8004e72:	910a      	str	r1, [sp, #40]	; 0x28
 8004e74:	9006      	str	r0, [sp, #24]
 8004e76:	9a0c      	ldr	r2, [sp, #48]	; 0x30
 8004e78:	2a00      	cmp	r2, #0
 8004e7a:	dd1c      	ble.n	8004eb6 <_dtoa_r+0x46a>
 8004e7c:	9b0d      	ldr	r3, [sp, #52]	; 0x34
 8004e7e:	2b00      	cmp	r3, #0
 8004e80:	f000 8479 	beq.w	8005776 <_dtoa_r+0xd2a>
 8004e84:	2e00      	cmp	r6, #0
 8004e86:	dd10      	ble.n	8004eaa <_dtoa_r+0x45e>
 8004e88:	4641      	mov	r1, r8
 8004e8a:	4632      	mov	r2, r6
 8004e8c:	4620      	mov	r0, r4
 8004e8e:	f001 fb31 	bl	80064f4 <__pow5mult>
 8004e92:	9a0b      	ldr	r2, [sp, #44]	; 0x2c
 8004e94:	4680      	mov	r8, r0
 8004e96:	4620      	mov	r0, r4
 8004e98:	4641      	mov	r1, r8
 8004e9a:	f001 fa8b 	bl	80063b4 <__multiply>
 8004e9e:	990b      	ldr	r1, [sp, #44]	; 0x2c
 8004ea0:	4607      	mov	r7, r0
 8004ea2:	4620      	mov	r0, r4
 8004ea4:	f001 f984 	bl	80061b0 <_Bfree>
 8004ea8:	970b      	str	r7, [sp, #44]	; 0x2c
 8004eaa:	f8dd e030 	ldr.w	lr, [sp, #48]	; 0x30
 8004eae:	ebbe 0206 	subs.w	r2, lr, r6
 8004eb2:	f040 84a7 	bne.w	8005804 <_dtoa_r+0xdb8>
 8004eb6:	4620      	mov	r0, r4
 8004eb8:	2101      	movs	r1, #1
 8004eba:	f001 fa71 	bl	80063a0 <__i2b>
 8004ebe:	4606      	mov	r6, r0
 8004ec0:	980e      	ldr	r0, [sp, #56]	; 0x38
 8004ec2:	2800      	cmp	r0, #0
 8004ec4:	dd05      	ble.n	8004ed2 <_dtoa_r+0x486>
 8004ec6:	4631      	mov	r1, r6
 8004ec8:	4620      	mov	r0, r4
 8004eca:	9a0e      	ldr	r2, [sp, #56]	; 0x38
 8004ecc:	f001 fb12 	bl	80064f4 <__pow5mult>
 8004ed0:	4606      	mov	r6, r0
 8004ed2:	9924      	ldr	r1, [sp, #144]	; 0x90
 8004ed4:	2901      	cmp	r1, #1
 8004ed6:	f340 8390 	ble.w	80055fa <_dtoa_r+0xbae>
 8004eda:	2700      	movs	r7, #0
 8004edc:	980e      	ldr	r0, [sp, #56]	; 0x38
 8004ede:	2800      	cmp	r0, #0
 8004ee0:	f040 836c 	bne.w	80055bc <_dtoa_r+0xb70>
 8004ee4:	2001      	movs	r0, #1
 8004ee6:	9b06      	ldr	r3, [sp, #24]
 8004ee8:	4403      	add	r3, r0
 8004eea:	f013 031f 	ands.w	r3, r3, #31
 8004eee:	f000 8293 	beq.w	8005418 <_dtoa_r+0x9cc>
 8004ef2:	f1c3 0220 	rsb	r2, r3, #32
 8004ef6:	2a04      	cmp	r2, #4
 8004ef8:	f340 8568 	ble.w	80059cc <_dtoa_r+0xf80>
 8004efc:	f1c3 031c 	rsb	r3, r3, #28
 8004f00:	990a      	ldr	r1, [sp, #40]	; 0x28
 8004f02:	9a06      	ldr	r2, [sp, #24]
 8004f04:	441d      	add	r5, r3
 8004f06:	4419      	add	r1, r3
 8004f08:	910a      	str	r1, [sp, #40]	; 0x28
 8004f0a:	441a      	add	r2, r3
 8004f0c:	9206      	str	r2, [sp, #24]
 8004f0e:	990a      	ldr	r1, [sp, #40]	; 0x28
 8004f10:	2900      	cmp	r1, #0
 8004f12:	dd05      	ble.n	8004f20 <_dtoa_r+0x4d4>
 8004f14:	990b      	ldr	r1, [sp, #44]	; 0x2c
 8004f16:	4620      	mov	r0, r4
 8004f18:	9a0a      	ldr	r2, [sp, #40]	; 0x28
 8004f1a:	f001 fb47 	bl	80065ac <__lshift>
 8004f1e:	900b      	str	r0, [sp, #44]	; 0x2c
 8004f20:	9a06      	ldr	r2, [sp, #24]
 8004f22:	2a00      	cmp	r2, #0
 8004f24:	dd04      	ble.n	8004f30 <_dtoa_r+0x4e4>
 8004f26:	4631      	mov	r1, r6
 8004f28:	4620      	mov	r0, r4
 8004f2a:	f001 fb3f 	bl	80065ac <__lshift>
 8004f2e:	4606      	mov	r6, r0
 8004f30:	9b0f      	ldr	r3, [sp, #60]	; 0x3c
 8004f32:	2b00      	cmp	r3, #0
 8004f34:	f040 8321 	bne.w	800557a <_dtoa_r+0xb2e>
 8004f38:	9824      	ldr	r0, [sp, #144]	; 0x90
 8004f3a:	9909      	ldr	r1, [sp, #36]	; 0x24
 8004f3c:	2802      	cmp	r0, #2
 8004f3e:	bfd4      	ite	le
 8004f40:	2300      	movle	r3, #0
 8004f42:	2301      	movgt	r3, #1
 8004f44:	2900      	cmp	r1, #0
 8004f46:	bfc8      	it	gt
 8004f48:	2300      	movgt	r3, #0
 8004f4a:	2b00      	cmp	r3, #0
 8004f4c:	f000 821a 	beq.w	8005384 <_dtoa_r+0x938>
 8004f50:	9809      	ldr	r0, [sp, #36]	; 0x24
 8004f52:	2800      	cmp	r0, #0
 8004f54:	f040 820f 	bne.w	8005376 <_dtoa_r+0x92a>
 8004f58:	4631      	mov	r1, r6
 8004f5a:	4603      	mov	r3, r0
 8004f5c:	2205      	movs	r2, #5
 8004f5e:	4620      	mov	r0, r4
 8004f60:	f001 f942 	bl	80061e8 <__multadd>
 8004f64:	4606      	mov	r6, r0
 8004f66:	980b      	ldr	r0, [sp, #44]	; 0x2c
 8004f68:	4631      	mov	r1, r6
 8004f6a:	f001 fb7b 	bl	8006664 <__mcmp>
 8004f6e:	2800      	cmp	r0, #0
 8004f70:	f340 8201 	ble.w	8005376 <_dtoa_r+0x92a>
 8004f74:	f8dd 9020 	ldr.w	r9, [sp, #32]
 8004f78:	2500      	movs	r5, #0
 8004f7a:	9a04      	ldr	r2, [sp, #16]
 8004f7c:	2331      	movs	r3, #49	; 0x31
 8004f7e:	3201      	adds	r2, #1
 8004f80:	f889 3000 	strb.w	r3, [r9]
 8004f84:	9204      	str	r2, [sp, #16]
 8004f86:	f109 0301 	add.w	r3, r9, #1
 8004f8a:	9308      	str	r3, [sp, #32]
 8004f8c:	4631      	mov	r1, r6
 8004f8e:	4620      	mov	r0, r4
 8004f90:	f001 f90e 	bl	80061b0 <_Bfree>
 8004f94:	f1b8 0f00 	cmp.w	r8, #0
 8004f98:	d008      	beq.n	8004fac <_dtoa_r+0x560>
 8004f9a:	4545      	cmp	r5, r8
 8004f9c:	bf18      	it	ne
 8004f9e:	2d00      	cmpne	r5, #0
 8004fa0:	f040 824a 	bne.w	8005438 <_dtoa_r+0x9ec>
 8004fa4:	4641      	mov	r1, r8
 8004fa6:	4620      	mov	r0, r4
 8004fa8:	f001 f902 	bl	80061b0 <_Bfree>
 8004fac:	4620      	mov	r0, r4
 8004fae:	990b      	ldr	r1, [sp, #44]	; 0x2c
 8004fb0:	f001 f8fe 	bl	80061b0 <_Bfree>
 8004fb4:	9e04      	ldr	r6, [sp, #16]
 8004fb6:	2200      	movs	r2, #0
 8004fb8:	4648      	mov	r0, r9
 8004fba:	1c73      	adds	r3, r6, #1
 8004fbc:	9e08      	ldr	r6, [sp, #32]
 8004fbe:	7032      	strb	r2, [r6, #0]
 8004fc0:	9e26      	ldr	r6, [sp, #152]	; 0x98
 8004fc2:	6033      	str	r3, [r6, #0]
 8004fc4:	9e28      	ldr	r6, [sp, #160]	; 0xa0
 8004fc6:	2e00      	cmp	r6, #0
 8004fc8:	f43f ad81 	beq.w	8004ace <_dtoa_r+0x82>
 8004fcc:	9808      	ldr	r0, [sp, #32]
 8004fce:	6030      	str	r0, [r6, #0]
 8004fd0:	4648      	mov	r0, r9
 8004fd2:	b01b      	add	sp, #108	; 0x6c
 8004fd4:	e8bd 8ff0 	ldmia.w	sp!, {r4, r5, r6, r7, r8, r9, sl, fp, pc}
 8004fd8:	2010      	movs	r0, #16
 8004fda:	f000 fd4b 	bl	8005a74 <malloc>
 8004fde:	6260      	str	r0, [r4, #36]	; 0x24
 8004fe0:	6046      	str	r6, [r0, #4]
 8004fe2:	6086      	str	r6, [r0, #8]
 8004fe4:	6006      	str	r6, [r0, #0]
 8004fe6:	60c6      	str	r6, [r0, #12]
 8004fe8:	e548      	b.n	8004a7c <_dtoa_r+0x30>
 8004fea:	9e0a      	ldr	r6, [sp, #40]	; 0x28
 8004fec:	f8dd e010 	ldr.w	lr, [sp, #16]
 8004ff0:	ebce 0606 	rsb	r6, lr, r6
 8004ff4:	960a      	str	r6, [sp, #40]	; 0x28
 8004ff6:	f1ce 0600 	rsb	r6, lr, #0
 8004ffa:	960c      	str	r6, [sp, #48]	; 0x30
 8004ffc:	2600      	movs	r6, #0
 8004ffe:	960e      	str	r6, [sp, #56]	; 0x38
 8005000:	e60a      	b.n	8004c18 <_dtoa_r+0x1cc>
 8005002:	9804      	ldr	r0, [sp, #16]
 8005004:	f003 fbbc 	bl	8008780 <__aeabi_i2d>
 8005008:	4632      	mov	r2, r6
 800500a:	463b      	mov	r3, r7
 800500c:	f003 fe86 	bl	8008d1c <__aeabi_dcmpeq>
 8005010:	2800      	cmp	r0, #0
 8005012:	f47f add0 	bne.w	8004bb6 <_dtoa_r+0x16a>
 8005016:	9e04      	ldr	r6, [sp, #16]
 8005018:	3e01      	subs	r6, #1
 800501a:	9604      	str	r6, [sp, #16]
 800501c:	e5cb      	b.n	8004bb6 <_dtoa_r+0x16a>
 800501e:	900f      	str	r0, [sp, #60]	; 0x3c
 8005020:	e5e2      	b.n	8004be8 <_dtoa_r+0x19c>
 8005022:	f64f 30ee 	movw	r0, #64494	; 0xfbee
 8005026:	f6cf 70ff 	movt	r0, #65535	; 0xffff
 800502a:	1b40      	subs	r0, r0, r5
 800502c:	fa0a f000 	lsl.w	r0, sl, r0
 8005030:	e58b      	b.n	8004b4a <_dtoa_r+0xfe>
 8005032:	9e24      	ldr	r6, [sp, #144]	; 0x90
 8005034:	2e01      	cmp	r6, #1
 8005036:	f340 8415 	ble.w	8005864 <_dtoa_r+0xe18>
 800503a:	9809      	ldr	r0, [sp, #36]	; 0x24
 800503c:	990c      	ldr	r1, [sp, #48]	; 0x30
 800503e:	1e46      	subs	r6, r0, #1
 8005040:	9809      	ldr	r0, [sp, #36]	; 0x24
 8005042:	42b1      	cmp	r1, r6
 8005044:	bfaf      	iteee	ge
 8005046:	ebc6 0601 	rsbge	r6, r6, r1
 800504a:	9a0c      	ldrlt	r2, [sp, #48]	; 0x30
 800504c:	960c      	strlt	r6, [sp, #48]	; 0x30
 800504e:	ebc2 0306 	rsblt	r3, r2, r6
 8005052:	bfbf      	itttt	lt
 8005054:	9e0e      	ldrlt	r6, [sp, #56]	; 0x38
 8005056:	18f6      	addlt	r6, r6, r3
 8005058:	960e      	strlt	r6, [sp, #56]	; 0x38
 800505a:	2600      	movlt	r6, #0
 800505c:	2800      	cmp	r0, #0
 800505e:	bfb9      	ittee	lt
 8005060:	2300      	movlt	r3, #0
 8005062:	990a      	ldrlt	r1, [sp, #40]	; 0x28
 8005064:	9d0a      	ldrge	r5, [sp, #40]	; 0x28
 8005066:	9b09      	ldrge	r3, [sp, #36]	; 0x24
 8005068:	bfb8      	it	lt
 800506a:	ebc0 0501 	rsblt	r5, r0, r1
 800506e:	9a0a      	ldr	r2, [sp, #40]	; 0x28
 8005070:	4620      	mov	r0, r4
 8005072:	f8dd e018 	ldr.w	lr, [sp, #24]
 8005076:	2101      	movs	r1, #1
 8005078:	441a      	add	r2, r3
 800507a:	920a      	str	r2, [sp, #40]	; 0x28
 800507c:	449e      	add	lr, r3
 800507e:	f8cd e018 	str.w	lr, [sp, #24]
 8005082:	f001 f98d 	bl	80063a0 <__i2b>
 8005086:	4680      	mov	r8, r0
 8005088:	e6e6      	b.n	8004e58 <_dtoa_r+0x40c>
 800508a:	2600      	movs	r6, #0
 800508c:	960d      	str	r6, [sp, #52]	; 0x34
 800508e:	9e04      	ldr	r6, [sp, #16]
 8005090:	f8dd e094 	ldr.w	lr, [sp, #148]	; 0x94
 8005094:	44b6      	add	lr, r6
 8005096:	f8cd e050 	str.w	lr, [sp, #80]	; 0x50
 800509a:	f10e 0601 	add.w	r6, lr, #1
 800509e:	9609      	str	r6, [sp, #36]	; 0x24
 80050a0:	2e00      	cmp	r6, #0
 80050a2:	f340 8359 	ble.w	8005758 <_dtoa_r+0xd0c>
 80050a6:	9e09      	ldr	r6, [sp, #36]	; 0x24
 80050a8:	2e0e      	cmp	r6, #14
 80050aa:	bf8c      	ite	hi
 80050ac:	2500      	movhi	r5, #0
 80050ae:	f005 0501 	andls.w	r5, r5, #1
 80050b2:	4637      	mov	r7, r6
 80050b4:	6a66      	ldr	r6, [r4, #36]	; 0x24
 80050b6:	2f17      	cmp	r7, #23
 80050b8:	f04f 0100 	mov.w	r1, #0
 80050bc:	6071      	str	r1, [r6, #4]
 80050be:	d909      	bls.n	80050d4 <_dtoa_r+0x688>
 80050c0:	2201      	movs	r2, #1
 80050c2:	2304      	movs	r3, #4
 80050c4:	005b      	lsls	r3, r3, #1
 80050c6:	4611      	mov	r1, r2
 80050c8:	f103 0014 	add.w	r0, r3, #20
 80050cc:	3201      	adds	r2, #1
 80050ce:	42b8      	cmp	r0, r7
 80050d0:	d9f8      	bls.n	80050c4 <_dtoa_r+0x678>
 80050d2:	6071      	str	r1, [r6, #4]
 80050d4:	4620      	mov	r0, r4
 80050d6:	f001 f835 	bl	8006144 <_Balloc>
 80050da:	6a63      	ldr	r3, [r4, #36]	; 0x24
 80050dc:	6030      	str	r0, [r6, #0]
 80050de:	681b      	ldr	r3, [r3, #0]
 80050e0:	9308      	str	r3, [sp, #32]
 80050e2:	2d00      	cmp	r5, #0
 80050e4:	f43f ade5 	beq.w	8004cb2 <_dtoa_r+0x266>
 80050e8:	9e04      	ldr	r6, [sp, #16]
 80050ea:	e9cd ab12 	strd	sl, fp, [sp, #72]	; 0x48
 80050ee:	2e00      	cmp	r6, #0
 80050f0:	f340 81ab 	ble.w	800544a <_dtoa_r+0x9fe>
 80050f4:	f006 020f 	and.w	r2, r6, #15
 80050f8:	f249 43f0 	movw	r3, #38128	; 0x94f0
 80050fc:	1135      	asrs	r5, r6, #4
 80050fe:	f6c0 0300 	movt	r3, #2048	; 0x800
 8005102:	eb03 03c2 	add.w	r3, r3, r2, lsl #3
 8005106:	06e9      	lsls	r1, r5, #27
 8005108:	e9d3 6700 	ldrd	r6, r7, [r3]
 800510c:	f140 818f 	bpl.w	800542e <_dtoa_r+0x9e2>
 8005110:	f249 53e0 	movw	r3, #38368	; 0x95e0
 8005114:	4650      	mov	r0, sl
 8005116:	f6c0 0300 	movt	r3, #2048	; 0x800
 800511a:	4659      	mov	r1, fp
 800511c:	f005 050f 	and.w	r5, r5, #15
 8005120:	f04f 0803 	mov.w	r8, #3
 8005124:	e9d3 2308 	ldrd	r2, r3, [r3, #32]
 8005128:	f003 fcba 	bl	8008aa0 <__aeabi_ddiv>
 800512c:	4682      	mov	sl, r0
 800512e:	468b      	mov	fp, r1
 8005130:	b19d      	cbz	r5, 800515a <_dtoa_r+0x70e>
 8005132:	f249 59e0 	movw	r9, #38368	; 0x95e0
 8005136:	f6c0 0900 	movt	r9, #2048	; 0x800
 800513a:	07ea      	lsls	r2, r5, #31
 800513c:	4630      	mov	r0, r6
 800513e:	4639      	mov	r1, r7
 8005140:	d507      	bpl.n	8005152 <_dtoa_r+0x706>
 8005142:	e9d9 2300 	ldrd	r2, r3, [r9]
 8005146:	f108 0801 	add.w	r8, r8, #1
 800514a:	f003 fb7f 	bl	800884c <__aeabi_dmul>
 800514e:	4606      	mov	r6, r0
 8005150:	460f      	mov	r7, r1
 8005152:	106d      	asrs	r5, r5, #1
 8005154:	f109 0908 	add.w	r9, r9, #8
 8005158:	d1ef      	bne.n	800513a <_dtoa_r+0x6ee>
 800515a:	4632      	mov	r2, r6
 800515c:	463b      	mov	r3, r7
 800515e:	4650      	mov	r0, sl
 8005160:	4659      	mov	r1, fp
 8005162:	f003 fc9d 	bl	8008aa0 <__aeabi_ddiv>
 8005166:	4606      	mov	r6, r0
 8005168:	460f      	mov	r7, r1
 800516a:	980f      	ldr	r0, [sp, #60]	; 0x3c
 800516c:	b150      	cbz	r0, 8005184 <_dtoa_r+0x738>
 800516e:	2300      	movs	r3, #0
 8005170:	4630      	mov	r0, r6
 8005172:	4639      	mov	r1, r7
 8005174:	2200      	movs	r2, #0
 8005176:	f6c3 73f0 	movt	r3, #16368	; 0x3ff0
 800517a:	f003 fdd9 	bl	8008d30 <__aeabi_dcmplt>
 800517e:	2800      	cmp	r0, #0
 8005180:	f040 8315 	bne.w	80057ae <_dtoa_r+0xd62>
 8005184:	4640      	mov	r0, r8
 8005186:	f003 fafb 	bl	8008780 <__aeabi_i2d>
 800518a:	4632      	mov	r2, r6
 800518c:	463b      	mov	r3, r7
 800518e:	f003 fb5d 	bl	800884c <__aeabi_dmul>
 8005192:	2300      	movs	r3, #0
 8005194:	2200      	movs	r2, #0
 8005196:	f2c4 031c 	movt	r3, #16412	; 0x401c
 800519a:	f003 f9a5 	bl	80084e8 <__adddf3>
 800519e:	4680      	mov	r8, r0
 80051a0:	9809      	ldr	r0, [sp, #36]	; 0x24
 80051a2:	f1a1 7950 	sub.w	r9, r1, #54525952	; 0x3400000
 80051a6:	2800      	cmp	r0, #0
 80051a8:	f000 80c9 	beq.w	800533e <_dtoa_r+0x8f2>
 80051ac:	9904      	ldr	r1, [sp, #16]
 80051ae:	f8dd c024 	ldr.w	ip, [sp, #36]	; 0x24
 80051b2:	9116      	str	r1, [sp, #88]	; 0x58
 80051b4:	9a0d      	ldr	r2, [sp, #52]	; 0x34
 80051b6:	2a00      	cmp	r2, #0
 80051b8:	f000 8179 	beq.w	80054ae <_dtoa_r+0xa62>
 80051bc:	f249 43f0 	movw	r3, #38128	; 0x94f0
 80051c0:	9a08      	ldr	r2, [sp, #32]
 80051c2:	f6c0 0300 	movt	r3, #2048	; 0x800
 80051c6:	2100      	movs	r1, #0
 80051c8:	eb03 03cc 	add.w	r3, r3, ip, lsl #3
 80051cc:	2000      	movs	r0, #0
 80051ce:	f6c3 71e0 	movt	r1, #16352	; 0x3fe0
 80051d2:	1c55      	adds	r5, r2, #1
 80051d4:	e953 2302 	ldrd	r2, r3, [r3, #-8]
 80051d8:	f8cd c008 	str.w	ip, [sp, #8]
 80051dc:	f003 fc60 	bl	8008aa0 <__aeabi_ddiv>
 80051e0:	4642      	mov	r2, r8
 80051e2:	464b      	mov	r3, r9
 80051e4:	f003 f97e 	bl	80084e4 <__aeabi_dsub>
 80051e8:	4682      	mov	sl, r0
 80051ea:	468b      	mov	fp, r1
 80051ec:	4630      	mov	r0, r6
 80051ee:	4639      	mov	r1, r7
 80051f0:	f003 fdc6 	bl	8008d80 <__aeabi_d2iz>
 80051f4:	4680      	mov	r8, r0
 80051f6:	f003 fac3 	bl	8008780 <__aeabi_i2d>
 80051fa:	f108 0830 	add.w	r8, r8, #48	; 0x30
 80051fe:	fa5f f888 	uxtb.w	r8, r8
 8005202:	4602      	mov	r2, r0
 8005204:	460b      	mov	r3, r1
 8005206:	4630      	mov	r0, r6
 8005208:	4639      	mov	r1, r7
 800520a:	f003 f96b 	bl	80084e4 <__aeabi_dsub>
 800520e:	f8dd e020 	ldr.w	lr, [sp, #32]
 8005212:	f88e 8000 	strb.w	r8, [lr]
 8005216:	4606      	mov	r6, r0
 8005218:	460f      	mov	r7, r1
 800521a:	4650      	mov	r0, sl
 800521c:	4659      	mov	r1, fp
 800521e:	4632      	mov	r2, r6
 8005220:	463b      	mov	r3, r7
 8005222:	f003 fda3 	bl	8008d6c <__aeabi_dcmpgt>
 8005226:	2800      	cmp	r0, #0
 8005228:	f040 83c2 	bne.w	80059b0 <_dtoa_r+0xf64>
 800522c:	2100      	movs	r1, #0
 800522e:	4632      	mov	r2, r6
 8005230:	463b      	mov	r3, r7
 8005232:	2000      	movs	r0, #0
 8005234:	f6c3 71f0 	movt	r1, #16368	; 0x3ff0
 8005238:	f003 f954 	bl	80084e4 <__aeabi_dsub>
 800523c:	4602      	mov	r2, r0
 800523e:	460b      	mov	r3, r1
 8005240:	4650      	mov	r0, sl
 8005242:	4659      	mov	r1, fp
 8005244:	f003 fd92 	bl	8008d6c <__aeabi_dcmpgt>
 8005248:	f8dd c008 	ldr.w	ip, [sp, #8]
 800524c:	2800      	cmp	r0, #0
 800524e:	f040 8314 	bne.w	800587a <_dtoa_r+0xe2e>
 8005252:	f1bc 0f01 	cmp.w	ip, #1
 8005256:	f340 80f5 	ble.w	8005444 <_dtoa_r+0x9f8>
 800525a:	f8dd 9020 	ldr.w	r9, [sp, #32]
 800525e:	9417      	str	r4, [sp, #92]	; 0x5c
 8005260:	44e1      	add	r9, ip
 8005262:	f8cd 9040 	str.w	r9, [sp, #64]	; 0x40
 8005266:	46a9      	mov	r9, r5
 8005268:	e010      	b.n	800528c <_dtoa_r+0x840>
 800526a:	2100      	movs	r1, #0
 800526c:	2000      	movs	r0, #0
 800526e:	f6c3 71f0 	movt	r1, #16368	; 0x3ff0
 8005272:	f003 f937 	bl	80084e4 <__aeabi_dsub>
 8005276:	4652      	mov	r2, sl
 8005278:	465b      	mov	r3, fp
 800527a:	f003 fd59 	bl	8008d30 <__aeabi_dcmplt>
 800527e:	2800      	cmp	r0, #0
 8005280:	f040 82f9 	bne.w	8005876 <_dtoa_r+0xe2a>
 8005284:	9810      	ldr	r0, [sp, #64]	; 0x40
 8005286:	4581      	cmp	r9, r0
 8005288:	f000 80db 	beq.w	8005442 <_dtoa_r+0x9f6>
 800528c:	2300      	movs	r3, #0
 800528e:	4650      	mov	r0, sl
 8005290:	4659      	mov	r1, fp
 8005292:	2200      	movs	r2, #0
 8005294:	f2c4 0324 	movt	r3, #16420	; 0x4024
 8005298:	f003 fad8 	bl	800884c <__aeabi_dmul>
 800529c:	2300      	movs	r3, #0
 800529e:	2200      	movs	r2, #0
 80052a0:	f2c4 0324 	movt	r3, #16420	; 0x4024
 80052a4:	4682      	mov	sl, r0
 80052a6:	468b      	mov	fp, r1
 80052a8:	4630      	mov	r0, r6
 80052aa:	4639      	mov	r1, r7
 80052ac:	f003 face 	bl	800884c <__aeabi_dmul>
 80052b0:	460d      	mov	r5, r1
 80052b2:	4604      	mov	r4, r0
 80052b4:	f003 fd64 	bl	8008d80 <__aeabi_d2iz>
 80052b8:	4680      	mov	r8, r0
 80052ba:	f003 fa61 	bl	8008780 <__aeabi_i2d>
 80052be:	f108 0830 	add.w	r8, r8, #48	; 0x30
 80052c2:	fa5f f888 	uxtb.w	r8, r8
 80052c6:	4602      	mov	r2, r0
 80052c8:	460b      	mov	r3, r1
 80052ca:	4620      	mov	r0, r4
 80052cc:	4629      	mov	r1, r5
 80052ce:	f003 f909 	bl	80084e4 <__aeabi_dsub>
 80052d2:	4652      	mov	r2, sl
 80052d4:	465b      	mov	r3, fp
 80052d6:	f809 8b01 	strb.w	r8, [r9], #1
 80052da:	4606      	mov	r6, r0
 80052dc:	460f      	mov	r7, r1
 80052de:	f003 fd27 	bl	8008d30 <__aeabi_dcmplt>
 80052e2:	4632      	mov	r2, r6
 80052e4:	463b      	mov	r3, r7
 80052e6:	2800      	cmp	r0, #0
 80052e8:	d0bf      	beq.n	800526a <_dtoa_r+0x81e>
 80052ea:	9e16      	ldr	r6, [sp, #88]	; 0x58
 80052ec:	464d      	mov	r5, r9
 80052ee:	9c17      	ldr	r4, [sp, #92]	; 0x5c
 80052f0:	f8dd 9020 	ldr.w	r9, [sp, #32]
 80052f4:	9604      	str	r6, [sp, #16]
 80052f6:	9508      	str	r5, [sp, #32]
 80052f8:	e658      	b.n	8004fac <_dtoa_r+0x560>
 80052fa:	2600      	movs	r6, #0
 80052fc:	960d      	str	r6, [sp, #52]	; 0x34
 80052fe:	9825      	ldr	r0, [sp, #148]	; 0x94
 8005300:	2800      	cmp	r0, #0
 8005302:	f340 8233 	ble.w	800576c <_dtoa_r+0xd20>
 8005306:	280e      	cmp	r0, #14
 8005308:	bf8c      	ite	hi
 800530a:	2500      	movhi	r5, #0
 800530c:	f005 0501 	andls.w	r5, r5, #1
 8005310:	4607      	mov	r7, r0
 8005312:	9014      	str	r0, [sp, #80]	; 0x50
 8005314:	9009      	str	r0, [sp, #36]	; 0x24
 8005316:	e6cd      	b.n	80050b4 <_dtoa_r+0x668>
 8005318:	2601      	movs	r6, #1
 800531a:	960d      	str	r6, [sp, #52]	; 0x34
 800531c:	e7ef      	b.n	80052fe <_dtoa_r+0x8b2>
 800531e:	4640      	mov	r0, r8
 8005320:	f003 fa2e 	bl	8008780 <__aeabi_i2d>
 8005324:	4632      	mov	r2, r6
 8005326:	463b      	mov	r3, r7
 8005328:	f003 fa90 	bl	800884c <__aeabi_dmul>
 800532c:	2300      	movs	r3, #0
 800532e:	2200      	movs	r2, #0
 8005330:	f2c4 031c 	movt	r3, #16412	; 0x401c
 8005334:	f003 f8d8 	bl	80084e8 <__adddf3>
 8005338:	4680      	mov	r8, r0
 800533a:	f1a1 7950 	sub.w	r9, r1, #54525952	; 0x3400000
 800533e:	2300      	movs	r3, #0
 8005340:	4630      	mov	r0, r6
 8005342:	2200      	movs	r2, #0
 8005344:	f2c4 0314 	movt	r3, #16404	; 0x4014
 8005348:	4639      	mov	r1, r7
 800534a:	f003 f8cb 	bl	80084e4 <__aeabi_dsub>
 800534e:	4642      	mov	r2, r8
 8005350:	464b      	mov	r3, r9
 8005352:	4682      	mov	sl, r0
 8005354:	468b      	mov	fp, r1
 8005356:	f003 fd09 	bl	8008d6c <__aeabi_dcmpgt>
 800535a:	4606      	mov	r6, r0
 800535c:	2800      	cmp	r0, #0
 800535e:	f040 80a3 	bne.w	80054a8 <_dtoa_r+0xa5c>
 8005362:	4642      	mov	r2, r8
 8005364:	4650      	mov	r0, sl
 8005366:	4659      	mov	r1, fp
 8005368:	f109 4300 	add.w	r3, r9, #2147483648	; 0x80000000
 800536c:	f003 fce0 	bl	8008d30 <__aeabi_dcmplt>
 8005370:	2800      	cmp	r0, #0
 8005372:	d067      	beq.n	8005444 <_dtoa_r+0x9f8>
 8005374:	46b0      	mov	r8, r6
 8005376:	9925      	ldr	r1, [sp, #148]	; 0x94
 8005378:	2500      	movs	r5, #0
 800537a:	f8dd 9020 	ldr.w	r9, [sp, #32]
 800537e:	43c9      	mvns	r1, r1
 8005380:	9104      	str	r1, [sp, #16]
 8005382:	e603      	b.n	8004f8c <_dtoa_r+0x540>
 8005384:	980d      	ldr	r0, [sp, #52]	; 0x34
 8005386:	2800      	cmp	r0, #0
 8005388:	f040 8164 	bne.w	8005654 <_dtoa_r+0xc08>
 800538c:	2500      	movs	r5, #0
 800538e:	f8dd a024 	ldr.w	sl, [sp, #36]	; 0x24
 8005392:	f8dd b020 	ldr.w	fp, [sp, #32]
 8005396:	f8dd 902c 	ldr.w	r9, [sp, #44]	; 0x2c
 800539a:	e002      	b.n	80053a2 <_dtoa_r+0x956>
 800539c:	f000 ff24 	bl	80061e8 <__multadd>
 80053a0:	4681      	mov	r9, r0
 80053a2:	4631      	mov	r1, r6
 80053a4:	4648      	mov	r0, r9
 80053a6:	f7ff faab 	bl	8004900 <quorem>
 80053aa:	4649      	mov	r1, r9
 80053ac:	220a      	movs	r2, #10
 80053ae:	2300      	movs	r3, #0
 80053b0:	f100 0730 	add.w	r7, r0, #48	; 0x30
 80053b4:	f80b 7005 	strb.w	r7, [fp, r5]
 80053b8:	3501      	adds	r5, #1
 80053ba:	4620      	mov	r0, r4
 80053bc:	4555      	cmp	r5, sl
 80053be:	dbed      	blt.n	800539c <_dtoa_r+0x950>
 80053c0:	f8dd b020 	ldr.w	fp, [sp, #32]
 80053c4:	461d      	mov	r5, r3
 80053c6:	9809      	ldr	r0, [sp, #36]	; 0x24
 80053c8:	f8cd 902c 	str.w	r9, [sp, #44]	; 0x2c
 80053cc:	2801      	cmp	r0, #1
 80053ce:	bfac      	ite	ge
 80053d0:	4483      	addge	fp, r0
 80053d2:	f10b 0b01 	addlt.w	fp, fp, #1
 80053d6:	990b      	ldr	r1, [sp, #44]	; 0x2c
 80053d8:	2201      	movs	r2, #1
 80053da:	4620      	mov	r0, r4
 80053dc:	f001 f8e6 	bl	80065ac <__lshift>
 80053e0:	4631      	mov	r1, r6
 80053e2:	900b      	str	r0, [sp, #44]	; 0x2c
 80053e4:	f001 f93e 	bl	8006664 <__mcmp>
 80053e8:	2800      	cmp	r0, #0
 80053ea:	f340 826f 	ble.w	80058cc <_dtoa_r+0xe80>
 80053ee:	f81b 2c01 	ldrb.w	r2, [fp, #-1]
 80053f2:	9908      	ldr	r1, [sp, #32]
 80053f4:	e005      	b.n	8005402 <_dtoa_r+0x9b6>
 80053f6:	428b      	cmp	r3, r1
 80053f8:	f000 8228 	beq.w	800584c <_dtoa_r+0xe00>
 80053fc:	f813 2c01 	ldrb.w	r2, [r3, #-1]
 8005400:	469b      	mov	fp, r3
 8005402:	2a39      	cmp	r2, #57	; 0x39
 8005404:	f10b 33ff 	add.w	r3, fp, #4294967295
 8005408:	d0f5      	beq.n	80053f6 <_dtoa_r+0x9aa>
 800540a:	3201      	adds	r2, #1
 800540c:	f8dd 9020 	ldr.w	r9, [sp, #32]
 8005410:	701a      	strb	r2, [r3, #0]
 8005412:	f8cd b020 	str.w	fp, [sp, #32]
 8005416:	e5b9      	b.n	8004f8c <_dtoa_r+0x540>
 8005418:	231c      	movs	r3, #28
 800541a:	f8dd e028 	ldr.w	lr, [sp, #40]	; 0x28
 800541e:	441d      	add	r5, r3
 8005420:	9806      	ldr	r0, [sp, #24]
 8005422:	449e      	add	lr, r3
 8005424:	f8cd e028 	str.w	lr, [sp, #40]	; 0x28
 8005428:	4418      	add	r0, r3
 800542a:	9006      	str	r0, [sp, #24]
 800542c:	e56f      	b.n	8004f0e <_dtoa_r+0x4c2>
 800542e:	e9dd ab12 	ldrd	sl, fp, [sp, #72]	; 0x48
 8005432:	f04f 0802 	mov.w	r8, #2
 8005436:	e67b      	b.n	8005130 <_dtoa_r+0x6e4>
 8005438:	4629      	mov	r1, r5
 800543a:	4620      	mov	r0, r4
 800543c:	f000 feb8 	bl	80061b0 <_Bfree>
 8005440:	e5b0      	b.n	8004fa4 <_dtoa_r+0x558>
 8005442:	9c17      	ldr	r4, [sp, #92]	; 0x5c
 8005444:	e9dd ab12 	ldrd	sl, fp, [sp, #72]	; 0x48
 8005448:	e433      	b.n	8004cb2 <_dtoa_r+0x266>
 800544a:	9e04      	ldr	r6, [sp, #16]
 800544c:	4275      	negs	r5, r6
 800544e:	2d00      	cmp	r5, #0
 8005450:	f000 819d 	beq.w	800578e <_dtoa_r+0xd42>
 8005454:	f005 020f 	and.w	r2, r5, #15
 8005458:	f249 43f0 	movw	r3, #38128	; 0x94f0
 800545c:	f6c0 0300 	movt	r3, #2048	; 0x800
 8005460:	e9dd 0112 	ldrd	r0, r1, [sp, #72]	; 0x48
 8005464:	eb03 03c2 	add.w	r3, r3, r2, lsl #3
 8005468:	e9d3 2300 	ldrd	r2, r3, [r3]
 800546c:	f003 f9ee 	bl	800884c <__aeabi_dmul>
 8005470:	112d      	asrs	r5, r5, #4
 8005472:	4606      	mov	r6, r0
 8005474:	460f      	mov	r7, r1
 8005476:	f000 8297 	beq.w	80059a8 <_dtoa_r+0xf5c>
 800547a:	f249 59e0 	movw	r9, #38368	; 0x95e0
 800547e:	f04f 0802 	mov.w	r8, #2
 8005482:	f6c0 0900 	movt	r9, #2048	; 0x800
 8005486:	07eb      	lsls	r3, r5, #31
 8005488:	4630      	mov	r0, r6
 800548a:	4639      	mov	r1, r7
 800548c:	d507      	bpl.n	800549e <_dtoa_r+0xa52>
 800548e:	e9d9 2300 	ldrd	r2, r3, [r9]
 8005492:	f108 0801 	add.w	r8, r8, #1
 8005496:	f003 f9d9 	bl	800884c <__aeabi_dmul>
 800549a:	4606      	mov	r6, r0
 800549c:	460f      	mov	r7, r1
 800549e:	106d      	asrs	r5, r5, #1
 80054a0:	f109 0908 	add.w	r9, r9, #8
 80054a4:	d1ef      	bne.n	8005486 <_dtoa_r+0xa3a>
 80054a6:	e660      	b.n	800516a <_dtoa_r+0x71e>
 80054a8:	2600      	movs	r6, #0
 80054aa:	46b0      	mov	r8, r6
 80054ac:	e562      	b.n	8004f74 <_dtoa_r+0x528>
 80054ae:	f10c 3bff 	add.w	fp, ip, #4294967295
 80054b2:	f249 41f0 	movw	r1, #38128	; 0x94f0
 80054b6:	f6c0 0100 	movt	r1, #2048	; 0x800
 80054ba:	9808      	ldr	r0, [sp, #32]
 80054bc:	eb01 01cb 	add.w	r1, r1, fp, lsl #3
 80054c0:	4642      	mov	r2, r8
 80054c2:	464b      	mov	r3, r9
 80054c4:	f100 0a01 	add.w	sl, r0, #1
 80054c8:	e9d1 0100 	ldrd	r0, r1, [r1]
 80054cc:	f8cd c008 	str.w	ip, [sp, #8]
 80054d0:	f003 f9bc 	bl	800884c <__aeabi_dmul>
 80054d4:	e9cd 0110 	strd	r0, r1, [sp, #64]	; 0x40
 80054d8:	4639      	mov	r1, r7
 80054da:	4630      	mov	r0, r6
 80054dc:	f003 fc50 	bl	8008d80 <__aeabi_d2iz>
 80054e0:	4605      	mov	r5, r0
 80054e2:	f003 f94d 	bl	8008780 <__aeabi_i2d>
 80054e6:	3530      	adds	r5, #48	; 0x30
 80054e8:	4602      	mov	r2, r0
 80054ea:	460b      	mov	r3, r1
 80054ec:	4630      	mov	r0, r6
 80054ee:	4639      	mov	r1, r7
 80054f0:	f002 fff8 	bl	80084e4 <__aeabi_dsub>
 80054f4:	460f      	mov	r7, r1
 80054f6:	9908      	ldr	r1, [sp, #32]
 80054f8:	4606      	mov	r6, r0
 80054fa:	700d      	strb	r5, [r1, #0]
 80054fc:	f8dd c008 	ldr.w	ip, [sp, #8]
 8005500:	f1bc 0f01 	cmp.w	ip, #1
 8005504:	d022      	beq.n	800554c <_dtoa_r+0xb00>
 8005506:	9a08      	ldr	r2, [sp, #32]
 8005508:	4630      	mov	r0, r6
 800550a:	4639      	mov	r1, r7
 800550c:	f102 39ff 	add.w	r9, r2, #4294967295
 8005510:	4615      	mov	r5, r2
 8005512:	44e1      	add	r9, ip
 8005514:	2300      	movs	r3, #0
 8005516:	2200      	movs	r2, #0
 8005518:	f2c4 0324 	movt	r3, #16420	; 0x4024
 800551c:	f003 f996 	bl	800884c <__aeabi_dmul>
 8005520:	460f      	mov	r7, r1
 8005522:	4606      	mov	r6, r0
 8005524:	f003 fc2c 	bl	8008d80 <__aeabi_d2iz>
 8005528:	4680      	mov	r8, r0
 800552a:	f003 f929 	bl	8008780 <__aeabi_i2d>
 800552e:	f108 0830 	add.w	r8, r8, #48	; 0x30
 8005532:	4602      	mov	r2, r0
 8005534:	460b      	mov	r3, r1
 8005536:	4630      	mov	r0, r6
 8005538:	4639      	mov	r1, r7
 800553a:	f002 ffd3 	bl	80084e4 <__aeabi_dsub>
 800553e:	f805 8f01 	strb.w	r8, [r5, #1]!
 8005542:	454d      	cmp	r5, r9
 8005544:	d1e6      	bne.n	8005514 <_dtoa_r+0xac8>
 8005546:	4606      	mov	r6, r0
 8005548:	460f      	mov	r7, r1
 800554a:	44da      	add	sl, fp
 800554c:	2300      	movs	r3, #0
 800554e:	2200      	movs	r2, #0
 8005550:	f6c3 73e0 	movt	r3, #16352	; 0x3fe0
 8005554:	e9dd 0110 	ldrd	r0, r1, [sp, #64]	; 0x40
 8005558:	f002 ffc6 	bl	80084e8 <__adddf3>
 800555c:	4632      	mov	r2, r6
 800555e:	463b      	mov	r3, r7
 8005560:	f003 fbe6 	bl	8008d30 <__aeabi_dcmplt>
 8005564:	2800      	cmp	r0, #0
 8005566:	f000 8154 	beq.w	8005812 <_dtoa_r+0xdc6>
 800556a:	f8dd 9020 	ldr.w	r9, [sp, #32]
 800556e:	4652      	mov	r2, sl
 8005570:	f81a 8c01 	ldrb.w	r8, [sl, #-1]
 8005574:	f8cd a020 	str.w	sl, [sp, #32]
 8005578:	e459      	b.n	8004e2e <_dtoa_r+0x3e2>
 800557a:	980b      	ldr	r0, [sp, #44]	; 0x2c
 800557c:	4631      	mov	r1, r6
 800557e:	f001 f871 	bl	8006664 <__mcmp>
 8005582:	2800      	cmp	r0, #0
 8005584:	f6bf acd8 	bge.w	8004f38 <_dtoa_r+0x4ec>
 8005588:	f8dd e010 	ldr.w	lr, [sp, #16]
 800558c:	4620      	mov	r0, r4
 800558e:	990b      	ldr	r1, [sp, #44]	; 0x2c
 8005590:	220a      	movs	r2, #10
 8005592:	2300      	movs	r3, #0
 8005594:	f10e 3eff 	add.w	lr, lr, #4294967295
 8005598:	f8cd e010 	str.w	lr, [sp, #16]
 800559c:	f000 fe24 	bl	80061e8 <__multadd>
 80055a0:	900b      	str	r0, [sp, #44]	; 0x2c
 80055a2:	980d      	ldr	r0, [sp, #52]	; 0x34
 80055a4:	2800      	cmp	r0, #0
 80055a6:	d141      	bne.n	800562c <_dtoa_r+0xbe0>
 80055a8:	9914      	ldr	r1, [sp, #80]	; 0x50
 80055aa:	9b14      	ldr	r3, [sp, #80]	; 0x50
 80055ac:	2900      	cmp	r1, #0
 80055ae:	dc03      	bgt.n	80055b8 <_dtoa_r+0xb6c>
 80055b0:	9a24      	ldr	r2, [sp, #144]	; 0x90
 80055b2:	2a02      	cmp	r2, #2
 80055b4:	f300 8207 	bgt.w	80059c6 <_dtoa_r+0xf7a>
 80055b8:	9309      	str	r3, [sp, #36]	; 0x24
 80055ba:	e6e7      	b.n	800538c <_dtoa_r+0x940>
 80055bc:	6933      	ldr	r3, [r6, #16]
 80055be:	eb06 0383 	add.w	r3, r6, r3, lsl #2
 80055c2:	6918      	ldr	r0, [r3, #16]
 80055c4:	f000 fea2 	bl	800630c <__hi0bits>
 80055c8:	f1c0 0020 	rsb	r0, r0, #32
 80055cc:	e48b      	b.n	8004ee6 <_dtoa_r+0x49a>
 80055ce:	9e09      	ldr	r6, [sp, #36]	; 0x24
 80055d0:	2e00      	cmp	r6, #0
 80055d2:	f040 818b 	bne.w	80058ec <_dtoa_r+0xea0>
 80055d6:	2300      	movs	r3, #0
 80055d8:	2200      	movs	r2, #0
 80055da:	f2c4 0314 	movt	r3, #16404	; 0x4014
 80055de:	e9dd 0106 	ldrd	r0, r1, [sp, #24]
 80055e2:	f003 f933 	bl	800884c <__aeabi_dmul>
 80055e6:	4652      	mov	r2, sl
 80055e8:	465b      	mov	r3, fp
 80055ea:	f003 fbb5 	bl	8008d58 <__aeabi_dcmpge>
 80055ee:	9e09      	ldr	r6, [sp, #36]	; 0x24
 80055f0:	46b0      	mov	r8, r6
 80055f2:	2800      	cmp	r0, #0
 80055f4:	f47f aebf 	bne.w	8005376 <_dtoa_r+0x92a>
 80055f8:	e4bc      	b.n	8004f74 <_dtoa_r+0x528>
 80055fa:	f1ba 0f00 	cmp.w	sl, #0
 80055fe:	f47f ac6c 	bne.w	8004eda <_dtoa_r+0x48e>
 8005602:	f3cb 0313 	ubfx	r3, fp, #0, #20
 8005606:	4657      	mov	r7, sl
 8005608:	2b00      	cmp	r3, #0
 800560a:	f47f ac67 	bne.w	8004edc <_dtoa_r+0x490>
 800560e:	f02b 4700 	bic.w	r7, fp, #2147483648	; 0x80000000
 8005612:	0d3f      	lsrs	r7, r7, #20
 8005614:	053f      	lsls	r7, r7, #20
 8005616:	2f00      	cmp	r7, #0
 8005618:	f43f ac60 	beq.w	8004edc <_dtoa_r+0x490>
 800561c:	9a0a      	ldr	r2, [sp, #40]	; 0x28
 800561e:	2701      	movs	r7, #1
 8005620:	9b06      	ldr	r3, [sp, #24]
 8005622:	3201      	adds	r2, #1
 8005624:	920a      	str	r2, [sp, #40]	; 0x28
 8005626:	3301      	adds	r3, #1
 8005628:	9306      	str	r3, [sp, #24]
 800562a:	e457      	b.n	8004edc <_dtoa_r+0x490>
 800562c:	2300      	movs	r3, #0
 800562e:	4641      	mov	r1, r8
 8005630:	220a      	movs	r2, #10
 8005632:	4620      	mov	r0, r4
 8005634:	f000 fdd8 	bl	80061e8 <__multadd>
 8005638:	9a14      	ldr	r2, [sp, #80]	; 0x50
 800563a:	9924      	ldr	r1, [sp, #144]	; 0x90
 800563c:	2a00      	cmp	r2, #0
 800563e:	bfcc      	ite	gt
 8005640:	2300      	movgt	r3, #0
 8005642:	2301      	movle	r3, #1
 8005644:	2902      	cmp	r1, #2
 8005646:	bfd8      	it	le
 8005648:	2300      	movle	r3, #0
 800564a:	4680      	mov	r8, r0
 800564c:	2b00      	cmp	r3, #0
 800564e:	f040 81b6 	bne.w	80059be <_dtoa_r+0xf72>
 8005652:	9209      	str	r2, [sp, #36]	; 0x24
 8005654:	2d00      	cmp	r5, #0
 8005656:	dd05      	ble.n	8005664 <_dtoa_r+0xc18>
 8005658:	4641      	mov	r1, r8
 800565a:	462a      	mov	r2, r5
 800565c:	4620      	mov	r0, r4
 800565e:	f000 ffa5 	bl	80065ac <__lshift>
 8005662:	4680      	mov	r8, r0
 8005664:	46c4      	mov	ip, r8
 8005666:	2f00      	cmp	r7, #0
 8005668:	f040 8153 	bne.w	8005912 <_dtoa_r+0xec6>
 800566c:	9909      	ldr	r1, [sp, #36]	; 0x24
 800566e:	f00a 0301 	and.w	r3, sl, #1
 8005672:	9a08      	ldr	r2, [sp, #32]
 8005674:	4637      	mov	r7, r6
 8005676:	9808      	ldr	r0, [sp, #32]
 8005678:	46e1      	mov	r9, ip
 800567a:	440a      	add	r2, r1
 800567c:	9309      	str	r3, [sp, #36]	; 0x24
 800567e:	920a      	str	r2, [sp, #40]	; 0x28
 8005680:	1c45      	adds	r5, r0, #1
 8005682:	9e0b      	ldr	r6, [sp, #44]	; 0x2c
 8005684:	e00a      	b.n	800569c <_dtoa_r+0xc50>
 8005686:	f000 fdaf 	bl	80061e8 <__multadd>
 800568a:	4649      	mov	r1, r9
 800568c:	220a      	movs	r2, #10
 800568e:	2300      	movs	r3, #0
 8005690:	4680      	mov	r8, r0
 8005692:	4620      	mov	r0, r4
 8005694:	f000 fda8 	bl	80061e8 <__multadd>
 8005698:	4681      	mov	r9, r0
 800569a:	3501      	adds	r5, #1
 800569c:	4639      	mov	r1, r7
 800569e:	4630      	mov	r0, r6
 80056a0:	f7ff f92e 	bl	8004900 <quorem>
 80056a4:	4641      	mov	r1, r8
 80056a6:	4682      	mov	sl, r0
 80056a8:	4630      	mov	r0, r6
 80056aa:	f000 ffdb 	bl	8006664 <__mcmp>
 80056ae:	464a      	mov	r2, r9
 80056b0:	4639      	mov	r1, r7
 80056b2:	4683      	mov	fp, r0
 80056b4:	4620      	mov	r0, r4
 80056b6:	f000 fff7 	bl	80066a8 <__mdiff>
 80056ba:	f10a 0230 	add.w	r2, sl, #48	; 0x30
 80056be:	9205      	str	r2, [sp, #20]
 80056c0:	f105 3eff 	add.w	lr, r5, #4294967295
 80056c4:	f8cd e018 	str.w	lr, [sp, #24]
 80056c8:	68c2      	ldr	r2, [r0, #12]
 80056ca:	4603      	mov	r3, r0
 80056cc:	2a00      	cmp	r2, #0
 80056ce:	d13e      	bne.n	800574e <_dtoa_r+0xd02>
 80056d0:	4619      	mov	r1, r3
 80056d2:	4630      	mov	r0, r6
 80056d4:	9302      	str	r3, [sp, #8]
 80056d6:	f000 ffc5 	bl	8006664 <__mcmp>
 80056da:	9b02      	ldr	r3, [sp, #8]
 80056dc:	4602      	mov	r2, r0
 80056de:	4620      	mov	r0, r4
 80056e0:	4619      	mov	r1, r3
 80056e2:	9202      	str	r2, [sp, #8]
 80056e4:	f000 fd64 	bl	80061b0 <_Bfree>
 80056e8:	9a02      	ldr	r2, [sp, #8]
 80056ea:	9824      	ldr	r0, [sp, #144]	; 0x90
 80056ec:	4310      	orrs	r0, r2
 80056ee:	d103      	bne.n	80056f8 <_dtoa_r+0xcac>
 80056f0:	9909      	ldr	r1, [sp, #36]	; 0x24
 80056f2:	2900      	cmp	r1, #0
 80056f4:	f000 814a 	beq.w	800598c <_dtoa_r+0xf40>
 80056f8:	f1bb 0f00 	cmp.w	fp, #0
 80056fc:	f2c0 80c3 	blt.w	8005886 <_dtoa_r+0xe3a>
 8005700:	9924      	ldr	r1, [sp, #144]	; 0x90
 8005702:	ea5b 0101 	orrs.w	r1, fp, r1
 8005706:	d103      	bne.n	8005710 <_dtoa_r+0xcc4>
 8005708:	9b09      	ldr	r3, [sp, #36]	; 0x24
 800570a:	2b00      	cmp	r3, #0
 800570c:	f000 80bb 	beq.w	8005886 <_dtoa_r+0xe3a>
 8005710:	2a00      	cmp	r2, #0
 8005712:	f300 811b 	bgt.w	800594c <_dtoa_r+0xf00>
 8005716:	9b0a      	ldr	r3, [sp, #40]	; 0x28
 8005718:	46ab      	mov	fp, r5
 800571a:	9a05      	ldr	r2, [sp, #20]
 800571c:	429d      	cmp	r5, r3
 800571e:	f805 2c01 	strb.w	r2, [r5, #-1]
 8005722:	f000 8124 	beq.w	800596e <_dtoa_r+0xf22>
 8005726:	4631      	mov	r1, r6
 8005728:	220a      	movs	r2, #10
 800572a:	2300      	movs	r3, #0
 800572c:	4620      	mov	r0, r4
 800572e:	f000 fd5b 	bl	80061e8 <__multadd>
 8005732:	45c8      	cmp	r8, r9
 8005734:	4641      	mov	r1, r8
 8005736:	f04f 020a 	mov.w	r2, #10
 800573a:	f04f 0300 	mov.w	r3, #0
 800573e:	4606      	mov	r6, r0
 8005740:	4620      	mov	r0, r4
 8005742:	d1a0      	bne.n	8005686 <_dtoa_r+0xc3a>
 8005744:	f000 fd50 	bl	80061e8 <__multadd>
 8005748:	4680      	mov	r8, r0
 800574a:	4681      	mov	r9, r0
 800574c:	e7a5      	b.n	800569a <_dtoa_r+0xc4e>
 800574e:	2201      	movs	r2, #1
 8005750:	e7c5      	b.n	80056de <_dtoa_r+0xc92>
 8005752:	2601      	movs	r6, #1
 8005754:	960d      	str	r6, [sp, #52]	; 0x34
 8005756:	e49a      	b.n	800508e <_dtoa_r+0x642>
 8005758:	2e0e      	cmp	r6, #14
 800575a:	bf8c      	ite	hi
 800575c:	2200      	movhi	r2, #0
 800575e:	2201      	movls	r2, #1
 8005760:	6a66      	ldr	r6, [r4, #36]	; 0x24
 8005762:	2300      	movs	r3, #0
 8005764:	4015      	ands	r5, r2
 8005766:	4619      	mov	r1, r3
 8005768:	6073      	str	r3, [r6, #4]
 800576a:	e4b3      	b.n	80050d4 <_dtoa_r+0x688>
 800576c:	2201      	movs	r2, #1
 800576e:	9225      	str	r2, [sp, #148]	; 0x94
 8005770:	9214      	str	r2, [sp, #80]	; 0x50
 8005772:	9209      	str	r2, [sp, #36]	; 0x24
 8005774:	e7f4      	b.n	8005760 <_dtoa_r+0xd14>
 8005776:	990b      	ldr	r1, [sp, #44]	; 0x2c
 8005778:	4620      	mov	r0, r4
 800577a:	9a0c      	ldr	r2, [sp, #48]	; 0x30
 800577c:	f000 feba 	bl	80064f4 <__pow5mult>
 8005780:	900b      	str	r0, [sp, #44]	; 0x2c
 8005782:	f7ff bb98 	b.w	8004eb6 <_dtoa_r+0x46a>
 8005786:	f8dd 9020 	ldr.w	r9, [sp, #32]
 800578a:	9508      	str	r5, [sp, #32]
 800578c:	e40e      	b.n	8004fac <_dtoa_r+0x560>
 800578e:	e9dd 6712 	ldrd	r6, r7, [sp, #72]	; 0x48
 8005792:	f04f 0802 	mov.w	r8, #2
 8005796:	e4e8      	b.n	800516a <_dtoa_r+0x71e>
 8005798:	9e16      	ldr	r6, [sp, #88]	; 0x58
 800579a:	2130      	movs	r1, #48	; 0x30
 800579c:	9208      	str	r2, [sp, #32]
 800579e:	2231      	movs	r2, #49	; 0x31
 80057a0:	3601      	adds	r6, #1
 80057a2:	f889 1000 	strb.w	r1, [r9]
 80057a6:	9604      	str	r6, [sp, #16]
 80057a8:	701a      	strb	r2, [r3, #0]
 80057aa:	f7ff bbff 	b.w	8004fac <_dtoa_r+0x560>
 80057ae:	9909      	ldr	r1, [sp, #36]	; 0x24
 80057b0:	2900      	cmp	r1, #0
 80057b2:	f43f adb4 	beq.w	800531e <_dtoa_r+0x8d2>
 80057b6:	9a14      	ldr	r2, [sp, #80]	; 0x50
 80057b8:	2a00      	cmp	r2, #0
 80057ba:	f77f ae43 	ble.w	8005444 <_dtoa_r+0x9f8>
 80057be:	2300      	movs	r3, #0
 80057c0:	2200      	movs	r2, #0
 80057c2:	4630      	mov	r0, r6
 80057c4:	4639      	mov	r1, r7
 80057c6:	f2c4 0324 	movt	r3, #16420	; 0x4024
 80057ca:	f003 f83f 	bl	800884c <__aeabi_dmul>
 80057ce:	9b04      	ldr	r3, [sp, #16]
 80057d0:	3b01      	subs	r3, #1
 80057d2:	9316      	str	r3, [sp, #88]	; 0x58
 80057d4:	4606      	mov	r6, r0
 80057d6:	f108 0001 	add.w	r0, r8, #1
 80057da:	460f      	mov	r7, r1
 80057dc:	f002 ffd0 	bl	8008780 <__aeabi_i2d>
 80057e0:	4602      	mov	r2, r0
 80057e2:	460b      	mov	r3, r1
 80057e4:	4630      	mov	r0, r6
 80057e6:	4639      	mov	r1, r7
 80057e8:	f003 f830 	bl	800884c <__aeabi_dmul>
 80057ec:	2300      	movs	r3, #0
 80057ee:	2200      	movs	r2, #0
 80057f0:	f2c4 031c 	movt	r3, #16412	; 0x401c
 80057f4:	f002 fe78 	bl	80084e8 <__adddf3>
 80057f8:	f8dd c050 	ldr.w	ip, [sp, #80]	; 0x50
 80057fc:	4680      	mov	r8, r0
 80057fe:	f1a1 7950 	sub.w	r9, r1, #54525952	; 0x3400000
 8005802:	e4d7      	b.n	80051b4 <_dtoa_r+0x768>
 8005804:	990b      	ldr	r1, [sp, #44]	; 0x2c
 8005806:	4620      	mov	r0, r4
 8005808:	f000 fe74 	bl	80064f4 <__pow5mult>
 800580c:	900b      	str	r0, [sp, #44]	; 0x2c
 800580e:	f7ff bb52 	b.w	8004eb6 <_dtoa_r+0x46a>
 8005812:	2100      	movs	r1, #0
 8005814:	e9dd 2310 	ldrd	r2, r3, [sp, #64]	; 0x40
 8005818:	2000      	movs	r0, #0
 800581a:	f6c3 71e0 	movt	r1, #16352	; 0x3fe0
 800581e:	f002 fe61 	bl	80084e4 <__aeabi_dsub>
 8005822:	4632      	mov	r2, r6
 8005824:	463b      	mov	r3, r7
 8005826:	f003 faa1 	bl	8008d6c <__aeabi_dcmpgt>
 800582a:	2800      	cmp	r0, #0
 800582c:	f43f ae0a 	beq.w	8005444 <_dtoa_r+0x9f8>
 8005830:	4653      	mov	r3, sl
 8005832:	f10a 3aff 	add.w	sl, sl, #4294967295
 8005836:	f813 2c01 	ldrb.w	r2, [r3, #-1]
 800583a:	2a30      	cmp	r2, #48	; 0x30
 800583c:	d0f8      	beq.n	8005830 <_dtoa_r+0xde4>
 800583e:	9e16      	ldr	r6, [sp, #88]	; 0x58
 8005840:	f8dd 9020 	ldr.w	r9, [sp, #32]
 8005844:	9308      	str	r3, [sp, #32]
 8005846:	9604      	str	r6, [sp, #16]
 8005848:	f7ff bbb0 	b.w	8004fac <_dtoa_r+0x560>
 800584c:	f8dd 9020 	ldr.w	r9, [sp, #32]
 8005850:	2331      	movs	r3, #49	; 0x31
 8005852:	9904      	ldr	r1, [sp, #16]
 8005854:	f8cd b020 	str.w	fp, [sp, #32]
 8005858:	3101      	adds	r1, #1
 800585a:	f889 3000 	strb.w	r3, [r9]
 800585e:	9104      	str	r1, [sp, #16]
 8005860:	f7ff bb94 	b.w	8004f8c <_dtoa_r+0x540>
 8005864:	9e15      	ldr	r6, [sp, #84]	; 0x54
 8005866:	2e00      	cmp	r6, #0
 8005868:	d069      	beq.n	800593e <_dtoa_r+0xef2>
 800586a:	f203 4333 	addw	r3, r3, #1075	; 0x433
 800586e:	9e0c      	ldr	r6, [sp, #48]	; 0x30
 8005870:	9d0a      	ldr	r5, [sp, #40]	; 0x28
 8005872:	f7ff bbfc 	b.w	800506e <_dtoa_r+0x622>
 8005876:	9c17      	ldr	r4, [sp, #92]	; 0x5c
 8005878:	464d      	mov	r5, r9
 800587a:	f8dd 9020 	ldr.w	r9, [sp, #32]
 800587e:	462a      	mov	r2, r5
 8005880:	9508      	str	r5, [sp, #32]
 8005882:	f7ff bad4 	b.w	8004e2e <_dtoa_r+0x3e2>
 8005886:	2a00      	cmp	r2, #0
 8005888:	960b      	str	r6, [sp, #44]	; 0x2c
 800588a:	46cc      	mov	ip, r9
 800588c:	463e      	mov	r6, r7
 800588e:	9f05      	ldr	r7, [sp, #20]
 8005890:	dd12      	ble.n	80058b8 <_dtoa_r+0xe6c>
 8005892:	990b      	ldr	r1, [sp, #44]	; 0x2c
 8005894:	2201      	movs	r2, #1
 8005896:	4620      	mov	r0, r4
 8005898:	f8cd 9008 	str.w	r9, [sp, #8]
 800589c:	f000 fe86 	bl	80065ac <__lshift>
 80058a0:	4631      	mov	r1, r6
 80058a2:	900b      	str	r0, [sp, #44]	; 0x2c
 80058a4:	f000 fede 	bl	8006664 <__mcmp>
 80058a8:	f8dd c008 	ldr.w	ip, [sp, #8]
 80058ac:	2800      	cmp	r0, #0
 80058ae:	dd77      	ble.n	80059a0 <_dtoa_r+0xf54>
 80058b0:	2f39      	cmp	r7, #57	; 0x39
 80058b2:	d062      	beq.n	800597a <_dtoa_r+0xf2e>
 80058b4:	f10a 0731 	add.w	r7, sl, #49	; 0x31
 80058b8:	9b06      	ldr	r3, [sp, #24]
 80058ba:	4645      	mov	r5, r8
 80058bc:	f8dd 9020 	ldr.w	r9, [sp, #32]
 80058c0:	46e0      	mov	r8, ip
 80058c2:	1c58      	adds	r0, r3, #1
 80058c4:	701f      	strb	r7, [r3, #0]
 80058c6:	9008      	str	r0, [sp, #32]
 80058c8:	f7ff bb60 	b.w	8004f8c <_dtoa_r+0x540>
 80058cc:	d102      	bne.n	80058d4 <_dtoa_r+0xe88>
 80058ce:	07fb      	lsls	r3, r7, #31
 80058d0:	f53f ad8d 	bmi.w	80053ee <_dtoa_r+0x9a2>
 80058d4:	465b      	mov	r3, fp
 80058d6:	f10b 3bff 	add.w	fp, fp, #4294967295
 80058da:	f813 2c01 	ldrb.w	r2, [r3, #-1]
 80058de:	2a30      	cmp	r2, #48	; 0x30
 80058e0:	d0f8      	beq.n	80058d4 <_dtoa_r+0xe88>
 80058e2:	f8dd 9020 	ldr.w	r9, [sp, #32]
 80058e6:	9308      	str	r3, [sp, #32]
 80058e8:	f7ff bb50 	b.w	8004f8c <_dtoa_r+0x540>
 80058ec:	2600      	movs	r6, #0
 80058ee:	e541      	b.n	8005374 <_dtoa_r+0x928>
 80058f0:	e9dd 0106 	ldrd	r0, r1, [sp, #24]
 80058f4:	4632      	mov	r2, r6
 80058f6:	463b      	mov	r3, r7
 80058f8:	f003 fa10 	bl	8008d1c <__aeabi_dcmpeq>
 80058fc:	2800      	cmp	r0, #0
 80058fe:	f43f af42 	beq.w	8005786 <_dtoa_r+0xd3a>
 8005902:	f018 0f01 	tst.w	r8, #1
 8005906:	f8dd 9020 	ldr.w	r9, [sp, #32]
 800590a:	f43f af3e 	beq.w	800578a <_dtoa_r+0xd3e>
 800590e:	f7ff ba81 	b.w	8004e14 <_dtoa_r+0x3c8>
 8005912:	f8d8 1004 	ldr.w	r1, [r8, #4]
 8005916:	4620      	mov	r0, r4
 8005918:	f000 fc14 	bl	8006144 <_Balloc>
 800591c:	f8d8 3010 	ldr.w	r3, [r8, #16]
 8005920:	f108 010c 	add.w	r1, r8, #12
 8005924:	1c9a      	adds	r2, r3, #2
 8005926:	0092      	lsls	r2, r2, #2
 8005928:	4605      	mov	r5, r0
 800592a:	300c      	adds	r0, #12
 800592c:	f000 fbb2 	bl	8006094 <memcpy>
 8005930:	4620      	mov	r0, r4
 8005932:	4629      	mov	r1, r5
 8005934:	2201      	movs	r2, #1
 8005936:	f000 fe39 	bl	80065ac <__lshift>
 800593a:	4684      	mov	ip, r0
 800593c:	e696      	b.n	800566c <_dtoa_r+0xc20>
 800593e:	9b18      	ldr	r3, [sp, #96]	; 0x60
 8005940:	9e0c      	ldr	r6, [sp, #48]	; 0x30
 8005942:	9d0a      	ldr	r5, [sp, #40]	; 0x28
 8005944:	f1c3 0336 	rsb	r3, r3, #54	; 0x36
 8005948:	f7ff bb91 	b.w	800506e <_dtoa_r+0x622>
 800594c:	960b      	str	r6, [sp, #44]	; 0x2c
 800594e:	463e      	mov	r6, r7
 8005950:	9f05      	ldr	r7, [sp, #20]
 8005952:	46cc      	mov	ip, r9
 8005954:	2f39      	cmp	r7, #57	; 0x39
 8005956:	d010      	beq.n	800597a <_dtoa_r+0xf2e>
 8005958:	9b06      	ldr	r3, [sp, #24]
 800595a:	3701      	adds	r7, #1
 800595c:	f8dd 9020 	ldr.w	r9, [sp, #32]
 8005960:	4645      	mov	r5, r8
 8005962:	1c58      	adds	r0, r3, #1
 8005964:	46e0      	mov	r8, ip
 8005966:	701f      	strb	r7, [r3, #0]
 8005968:	9008      	str	r0, [sp, #32]
 800596a:	f7ff bb0f 	b.w	8004f8c <_dtoa_r+0x540>
 800596e:	960b      	str	r6, [sp, #44]	; 0x2c
 8005970:	4645      	mov	r5, r8
 8005972:	463e      	mov	r6, r7
 8005974:	46c8      	mov	r8, r9
 8005976:	9f05      	ldr	r7, [sp, #20]
 8005978:	e52d      	b.n	80053d6 <_dtoa_r+0x98a>
 800597a:	9b06      	ldr	r3, [sp, #24]
 800597c:	2239      	movs	r2, #57	; 0x39
 800597e:	4645      	mov	r5, r8
 8005980:	9908      	ldr	r1, [sp, #32]
 8005982:	46e0      	mov	r8, ip
 8005984:	f103 0b01 	add.w	fp, r3, #1
 8005988:	701a      	strb	r2, [r3, #0]
 800598a:	e53a      	b.n	8005402 <_dtoa_r+0x9b6>
 800598c:	960b      	str	r6, [sp, #44]	; 0x2c
 800598e:	463e      	mov	r6, r7
 8005990:	9f05      	ldr	r7, [sp, #20]
 8005992:	46cc      	mov	ip, r9
 8005994:	2f39      	cmp	r7, #57	; 0x39
 8005996:	d0f0      	beq.n	800597a <_dtoa_r+0xf2e>
 8005998:	f1bb 0f00 	cmp.w	fp, #0
 800599c:	dc8a      	bgt.n	80058b4 <_dtoa_r+0xe68>
 800599e:	e78b      	b.n	80058b8 <_dtoa_r+0xe6c>
 80059a0:	d18a      	bne.n	80058b8 <_dtoa_r+0xe6c>
 80059a2:	07fa      	lsls	r2, r7, #31
 80059a4:	d588      	bpl.n	80058b8 <_dtoa_r+0xe6c>
 80059a6:	e783      	b.n	80058b0 <_dtoa_r+0xe64>
 80059a8:	f04f 0802 	mov.w	r8, #2
 80059ac:	f7ff bbdd 	b.w	800516a <_dtoa_r+0x71e>
 80059b0:	9e16      	ldr	r6, [sp, #88]	; 0x58
 80059b2:	f8dd 9020 	ldr.w	r9, [sp, #32]
 80059b6:	9508      	str	r5, [sp, #32]
 80059b8:	9604      	str	r6, [sp, #16]
 80059ba:	f7ff baf7 	b.w	8004fac <_dtoa_r+0x560>
 80059be:	9a14      	ldr	r2, [sp, #80]	; 0x50
 80059c0:	9209      	str	r2, [sp, #36]	; 0x24
 80059c2:	f7ff bac5 	b.w	8004f50 <_dtoa_r+0x504>
 80059c6:	9309      	str	r3, [sp, #36]	; 0x24
 80059c8:	f7ff bac2 	b.w	8004f50 <_dtoa_r+0x504>
 80059cc:	f43f aa9f 	beq.w	8004f0e <_dtoa_r+0x4c2>
 80059d0:	f1c3 033c 	rsb	r3, r3, #60	; 0x3c
 80059d4:	e521      	b.n	800541a <_dtoa_r+0x9ce>
 80059d6:	bf00      	nop

080059d8 <_setlocale_r>:
 80059d8:	b510      	push	{r4, lr}
 80059da:	4614      	mov	r4, r2
 80059dc:	b13a      	cbz	r2, 80059ee <_setlocale_r+0x16>
 80059de:	f249 6194 	movw	r1, #38548	; 0x9694
 80059e2:	4610      	mov	r0, r2
 80059e4:	f6c0 0100 	movt	r1, #2048	; 0x800
 80059e8:	f001 f884 	bl	8006af4 <strcmp>
 80059ec:	b920      	cbnz	r0, 80059f8 <_setlocale_r+0x20>
 80059ee:	f249 603c 	movw	r0, #38460	; 0x963c
 80059f2:	f6c0 0000 	movt	r0, #2048	; 0x800
 80059f6:	bd10      	pop	{r4, pc}
 80059f8:	f249 613c 	movw	r1, #38460	; 0x963c
 80059fc:	4620      	mov	r0, r4
 80059fe:	f6c0 0100 	movt	r1, #2048	; 0x800
 8005a02:	f001 f877 	bl	8006af4 <strcmp>
 8005a06:	2800      	cmp	r0, #0
 8005a08:	d0f1      	beq.n	80059ee <_setlocale_r+0x16>
 8005a0a:	f249 6160 	movw	r1, #38496	; 0x9660
 8005a0e:	4620      	mov	r0, r4
 8005a10:	f6c0 0100 	movt	r1, #2048	; 0x800
 8005a14:	f001 f86e 	bl	8006af4 <strcmp>
 8005a18:	f249 633c 	movw	r3, #38460	; 0x963c
 8005a1c:	f6c0 0300 	movt	r3, #2048	; 0x800
 8005a20:	2800      	cmp	r0, #0
 8005a22:	bf0c      	ite	eq
 8005a24:	4618      	moveq	r0, r3
 8005a26:	2000      	movne	r0, #0
 8005a28:	bd10      	pop	{r4, pc}
 8005a2a:	bf00      	nop

08005a2c <__locale_charset>:
 8005a2c:	f240 00f4 	movw	r0, #244	; 0xf4
 8005a30:	f2c2 0000 	movt	r0, #8192	; 0x2000
 8005a34:	4770      	bx	lr
 8005a36:	bf00      	nop

08005a38 <__locale_mb_cur_max>:
 8005a38:	f240 03f4 	movw	r3, #244	; 0xf4
 8005a3c:	f2c2 0300 	movt	r3, #8192	; 0x2000
 8005a40:	6a18      	ldr	r0, [r3, #32]
 8005a42:	4770      	bx	lr

08005a44 <__locale_msgcharset>:
 8005a44:	4800      	ldr	r0, [pc, #0]	; (8005a48 <__locale_msgcharset+0x4>)
 8005a46:	4770      	bx	lr
 8005a48:	20000118 	andcs	r0, r0, r8, lsl r1

08005a4c <__locale_cjk_lang>:
 8005a4c:	2000      	movs	r0, #0
 8005a4e:	4770      	bx	lr

08005a50 <_localeconv_r>:
 8005a50:	4800      	ldr	r0, [pc, #0]	; (8005a54 <_localeconv_r+0x4>)
 8005a52:	4770      	bx	lr
 8005a54:	20000138 	andcs	r0, r0, r8, lsr r1

08005a58 <setlocale>:
 8005a58:	f240 0300 	movw	r3, #0
 8005a5c:	460a      	mov	r2, r1
 8005a5e:	f2c2 0300 	movt	r3, #8192	; 0x2000
 8005a62:	4601      	mov	r1, r0
 8005a64:	6818      	ldr	r0, [r3, #0]
 8005a66:	f7ff bfb7 	b.w	80059d8 <_setlocale_r>
 8005a6a:	bf00      	nop

08005a6c <localeconv>:
 8005a6c:	4800      	ldr	r0, [pc, #0]	; (8005a70 <localeconv+0x4>)
 8005a6e:	4770      	bx	lr
 8005a70:	20000138 	andcs	r0, r0, r8, lsr r1

08005a74 <malloc>:
 8005a74:	f240 0300 	movw	r3, #0
 8005a78:	4601      	mov	r1, r0
 8005a7a:	f2c2 0300 	movt	r3, #8192	; 0x2000
 8005a7e:	6818      	ldr	r0, [r3, #0]
 8005a80:	f000 b808 	b.w	8005a94 <_malloc_r>

08005a84 <free>:
 8005a84:	f240 0300 	movw	r3, #0
 8005a88:	4601      	mov	r1, r0
 8005a8a:	f2c2 0300 	movt	r3, #8192	; 0x2000
 8005a8e:	6818      	ldr	r0, [r3, #0]
 8005a90:	f001 bff2 	b.w	8007a78 <_free_r>

08005a94 <_malloc_r>:
 8005a94:	e92d 4ff0 	stmdb	sp!, {r4, r5, r6, r7, r8, r9, sl, fp, lr}
 8005a98:	f101 040b 	add.w	r4, r1, #11
 8005a9c:	2c16      	cmp	r4, #22
 8005a9e:	b083      	sub	sp, #12
 8005aa0:	bf8e      	itee	hi
 8005aa2:	f024 0407 	bichi.w	r4, r4, #7
 8005aa6:	2300      	movls	r3, #0
 8005aa8:	2410      	movls	r4, #16
 8005aaa:	4607      	mov	r7, r0
 8005aac:	bf88      	it	hi
 8005aae:	0fe3      	lsrhi	r3, r4, #31
 8005ab0:	428c      	cmp	r4, r1
 8005ab2:	bf2c      	ite	cs
 8005ab4:	4619      	movcs	r1, r3
 8005ab6:	f043 0101 	orrcc.w	r1, r3, #1
 8005aba:	2900      	cmp	r1, #0
 8005abc:	f040 80ba 	bne.w	8005c34 <_malloc_r+0x1a0>
 8005ac0:	f000 fb3c 	bl	800613c <__malloc_lock>
 8005ac4:	f5b4 7ffc 	cmp.w	r4, #504	; 0x1f8
 8005ac8:	d220      	bcs.n	8005b0c <_malloc_r+0x78>
 8005aca:	f240 1670 	movw	r6, #368	; 0x170
 8005ace:	ea4f 0cd4 	mov.w	ip, r4, lsr #3
 8005ad2:	f2c2 0600 	movt	r6, #8192	; 0x2000
 8005ad6:	eb06 02cc 	add.w	r2, r6, ip, lsl #3
 8005ada:	68d3      	ldr	r3, [r2, #12]
 8005adc:	4293      	cmp	r3, r2
 8005ade:	f000 81f7 	beq.w	8005ed0 <_malloc_r+0x43c>
 8005ae2:	6859      	ldr	r1, [r3, #4]
 8005ae4:	f103 0808 	add.w	r8, r3, #8
 8005ae8:	68da      	ldr	r2, [r3, #12]
 8005aea:	4638      	mov	r0, r7
 8005aec:	f021 0403 	bic.w	r4, r1, #3
 8005af0:	6899      	ldr	r1, [r3, #8]
 8005af2:	4423      	add	r3, r4
 8005af4:	685c      	ldr	r4, [r3, #4]
 8005af6:	60ca      	str	r2, [r1, #12]
 8005af8:	f044 0401 	orr.w	r4, r4, #1
 8005afc:	6091      	str	r1, [r2, #8]
 8005afe:	605c      	str	r4, [r3, #4]
 8005b00:	f000 fb1e 	bl	8006140 <__malloc_unlock>
 8005b04:	4640      	mov	r0, r8
 8005b06:	b003      	add	sp, #12
 8005b08:	e8bd 8ff0 	ldmia.w	sp!, {r4, r5, r6, r7, r8, r9, sl, fp, pc}
 8005b0c:	ea5f 2c54 	movs.w	ip, r4, lsr #9
 8005b10:	bf04      	itt	eq
 8005b12:	257e      	moveq	r5, #126	; 0x7e
 8005b14:	f04f 0c3f 	moveq.w	ip, #63	; 0x3f
 8005b18:	f040 8094 	bne.w	8005c44 <_malloc_r+0x1b0>
 8005b1c:	f240 1670 	movw	r6, #368	; 0x170
 8005b20:	f2c2 0600 	movt	r6, #8192	; 0x2000
 8005b24:	eb06 0585 	add.w	r5, r6, r5, lsl #2
 8005b28:	68eb      	ldr	r3, [r5, #12]
 8005b2a:	429d      	cmp	r5, r3
 8005b2c:	d106      	bne.n	8005b3c <_malloc_r+0xa8>
 8005b2e:	e00d      	b.n	8005b4c <_malloc_r+0xb8>
 8005b30:	2a00      	cmp	r2, #0
 8005b32:	f280 8164 	bge.w	8005dfe <_malloc_r+0x36a>
 8005b36:	68db      	ldr	r3, [r3, #12]
 8005b38:	429d      	cmp	r5, r3
 8005b3a:	d007      	beq.n	8005b4c <_malloc_r+0xb8>
 8005b3c:	6859      	ldr	r1, [r3, #4]
 8005b3e:	f021 0103 	bic.w	r1, r1, #3
 8005b42:	1b0a      	subs	r2, r1, r4
 8005b44:	2a0f      	cmp	r2, #15
 8005b46:	ddf3      	ble.n	8005b30 <_malloc_r+0x9c>
 8005b48:	f10c 3cff 	add.w	ip, ip, #4294967295
 8005b4c:	f10c 0c01 	add.w	ip, ip, #1
 8005b50:	f240 1270 	movw	r2, #368	; 0x170
 8005b54:	6933      	ldr	r3, [r6, #16]
 8005b56:	f2c2 0200 	movt	r2, #8192	; 0x2000
 8005b5a:	f102 0e08 	add.w	lr, r2, #8
 8005b5e:	4573      	cmp	r3, lr
 8005b60:	bf08      	it	eq
 8005b62:	6851      	ldreq	r1, [r2, #4]
 8005b64:	d023      	beq.n	8005bae <_malloc_r+0x11a>
 8005b66:	6858      	ldr	r0, [r3, #4]
 8005b68:	f020 0003 	bic.w	r0, r0, #3
 8005b6c:	1b01      	subs	r1, r0, r4
 8005b6e:	290f      	cmp	r1, #15
 8005b70:	f300 8192 	bgt.w	8005e98 <_malloc_r+0x404>
 8005b74:	2900      	cmp	r1, #0
 8005b76:	f8c2 e014 	str.w	lr, [r2, #20]
 8005b7a:	f8c2 e010 	str.w	lr, [r2, #16]
 8005b7e:	da6c      	bge.n	8005c5a <_malloc_r+0x1c6>
 8005b80:	f5b0 7f00 	cmp.w	r0, #512	; 0x200
 8005b84:	f080 8161 	bcs.w	8005e4a <_malloc_r+0x3b6>
 8005b88:	08c0      	lsrs	r0, r0, #3
 8005b8a:	f04f 0801 	mov.w	r8, #1
 8005b8e:	6851      	ldr	r1, [r2, #4]
 8005b90:	eb02 05c0 	add.w	r5, r2, r0, lsl #3
 8005b94:	1080      	asrs	r0, r0, #2
 8005b96:	fa08 f800 	lsl.w	r8, r8, r0
 8005b9a:	ea48 0801 	orr.w	r8, r8, r1
 8005b9e:	68a8      	ldr	r0, [r5, #8]
 8005ba0:	4641      	mov	r1, r8
 8005ba2:	60dd      	str	r5, [r3, #12]
 8005ba4:	f8c2 8004 	str.w	r8, [r2, #4]
 8005ba8:	6098      	str	r0, [r3, #8]
 8005baa:	60ab      	str	r3, [r5, #8]
 8005bac:	60c3      	str	r3, [r0, #12]
 8005bae:	2201      	movs	r2, #1
 8005bb0:	ea4f 03ac 	mov.w	r3, ip, asr #2
 8005bb4:	fa02 f303 	lsl.w	r3, r2, r3
 8005bb8:	428b      	cmp	r3, r1
 8005bba:	d85c      	bhi.n	8005c76 <_malloc_r+0x1e2>
 8005bbc:	4219      	tst	r1, r3
 8005bbe:	d10b      	bne.n	8005bd8 <_malloc_r+0x144>
 8005bc0:	4093      	lsls	r3, r2
 8005bc2:	f02c 0c03 	bic.w	ip, ip, #3
 8005bc6:	4219      	tst	r1, r3
 8005bc8:	f10c 0c04 	add.w	ip, ip, #4
 8005bcc:	d104      	bne.n	8005bd8 <_malloc_r+0x144>
 8005bce:	005b      	lsls	r3, r3, #1
 8005bd0:	f10c 0c04 	add.w	ip, ip, #4
 8005bd4:	4219      	tst	r1, r3
 8005bd6:	d0fa      	beq.n	8005bce <_malloc_r+0x13a>
 8005bd8:	eb06 08cc 	add.w	r8, r6, ip, lsl #3
 8005bdc:	46e1      	mov	r9, ip
 8005bde:	4640      	mov	r0, r8
 8005be0:	68c2      	ldr	r2, [r0, #12]
 8005be2:	4290      	cmp	r0, r2
 8005be4:	d107      	bne.n	8005bf6 <_malloc_r+0x162>
 8005be6:	e16b      	b.n	8005ec0 <_malloc_r+0x42c>
 8005be8:	2900      	cmp	r1, #0
 8005bea:	f280 817b 	bge.w	8005ee4 <_malloc_r+0x450>
 8005bee:	68d2      	ldr	r2, [r2, #12]
 8005bf0:	4290      	cmp	r0, r2
 8005bf2:	f000 8165 	beq.w	8005ec0 <_malloc_r+0x42c>
 8005bf6:	6855      	ldr	r5, [r2, #4]
 8005bf8:	f025 0503 	bic.w	r5, r5, #3
 8005bfc:	1b29      	subs	r1, r5, r4
 8005bfe:	290f      	cmp	r1, #15
 8005c00:	ddf2      	ble.n	8005be8 <_malloc_r+0x154>
 8005c02:	4690      	mov	r8, r2
 8005c04:	68d5      	ldr	r5, [r2, #12]
 8005c06:	4638      	mov	r0, r7
 8005c08:	1913      	adds	r3, r2, r4
 8005c0a:	f858 7f08 	ldr.w	r7, [r8, #8]!
 8005c0e:	f044 0c01 	orr.w	ip, r4, #1
 8005c12:	f041 0401 	orr.w	r4, r1, #1
 8005c16:	f8c2 c004 	str.w	ip, [r2, #4]
 8005c1a:	60fd      	str	r5, [r7, #12]
 8005c1c:	60af      	str	r7, [r5, #8]
 8005c1e:	6173      	str	r3, [r6, #20]
 8005c20:	6133      	str	r3, [r6, #16]
 8005c22:	f8c3 e00c 	str.w	lr, [r3, #12]
 8005c26:	f8c3 e008 	str.w	lr, [r3, #8]
 8005c2a:	605c      	str	r4, [r3, #4]
 8005c2c:	5059      	str	r1, [r3, r1]
 8005c2e:	f000 fa87 	bl	8006140 <__malloc_unlock>
 8005c32:	e767      	b.n	8005b04 <_malloc_r+0x70>
 8005c34:	f04f 0800 	mov.w	r8, #0
 8005c38:	230c      	movs	r3, #12
 8005c3a:	6003      	str	r3, [r0, #0]
 8005c3c:	4640      	mov	r0, r8
 8005c3e:	b003      	add	sp, #12
 8005c40:	e8bd 8ff0 	ldmia.w	sp!, {r4, r5, r6, r7, r8, r9, sl, fp, pc}
 8005c44:	f1bc 0f04 	cmp.w	ip, #4
 8005c48:	f200 80eb 	bhi.w	8005e22 <_malloc_r+0x38e>
 8005c4c:	ea4f 1c94 	mov.w	ip, r4, lsr #6
 8005c50:	f10c 0c38 	add.w	ip, ip, #56	; 0x38
 8005c54:	ea4f 054c 	mov.w	r5, ip, lsl #1
 8005c58:	e760      	b.n	8005b1c <_malloc_r+0x88>
 8005c5a:	181a      	adds	r2, r3, r0
 8005c5c:	f103 0808 	add.w	r8, r3, #8
 8005c60:	4638      	mov	r0, r7
 8005c62:	6853      	ldr	r3, [r2, #4]
 8005c64:	f043 0301 	orr.w	r3, r3, #1
 8005c68:	6053      	str	r3, [r2, #4]
 8005c6a:	f000 fa69 	bl	8006140 <__malloc_unlock>
 8005c6e:	4640      	mov	r0, r8
 8005c70:	b003      	add	sp, #12
 8005c72:	e8bd 8ff0 	ldmia.w	sp!, {r4, r5, r6, r7, r8, r9, sl, fp, pc}
 8005c76:	68b5      	ldr	r5, [r6, #8]
 8005c78:	686b      	ldr	r3, [r5, #4]
 8005c7a:	f023 0a03 	bic.w	sl, r3, #3
 8005c7e:	4554      	cmp	r4, sl
 8005c80:	d804      	bhi.n	8005c8c <_malloc_r+0x1f8>
 8005c82:	ebc4 030a 	rsb	r3, r4, sl
 8005c86:	2b0f      	cmp	r3, #15
 8005c88:	f300 80a8 	bgt.w	8005ddc <_malloc_r+0x348>
 8005c8c:	f240 5990 	movw	r9, #1424	; 0x590
 8005c90:	f8d6 1408 	ldr.w	r1, [r6, #1032]	; 0x408
 8005c94:	f2c2 0900 	movt	r9, #8192	; 0x2000
 8005c98:	4638      	mov	r0, r7
 8005c9a:	3101      	adds	r1, #1
 8005c9c:	eb05 020a 	add.w	r2, r5, sl
 8005ca0:	f8d9 3000 	ldr.w	r3, [r9]
 8005ca4:	9201      	str	r2, [sp, #4]
 8005ca6:	4423      	add	r3, r4
 8005ca8:	bf17      	itett	ne
 8005caa:	f503 5380 	addne.w	r3, r3, #4096	; 0x1000
 8005cae:	f103 0b10 	addeq.w	fp, r3, #16
 8005cb2:	330f      	addne	r3, #15
 8005cb4:	f423 637f 	bicne.w	r3, r3, #4080	; 0xff0
 8005cb8:	bf18      	it	ne
 8005cba:	f023 0b0f 	bicne.w	fp, r3, #15
 8005cbe:	4659      	mov	r1, fp
 8005cc0:	f000 ff04 	bl	8006acc <_sbrk_r>
 8005cc4:	9a01      	ldr	r2, [sp, #4]
 8005cc6:	f1b0 3fff 	cmp.w	r0, #4294967295
 8005cca:	4680      	mov	r8, r0
 8005ccc:	f000 8120 	beq.w	8005f10 <_malloc_r+0x47c>
 8005cd0:	4282      	cmp	r2, r0
 8005cd2:	f200 811a 	bhi.w	8005f0a <_malloc_r+0x476>
 8005cd6:	f8d9 3004 	ldr.w	r3, [r9, #4]
 8005cda:	4542      	cmp	r2, r8
 8005cdc:	445b      	add	r3, fp
 8005cde:	f8c9 3004 	str.w	r3, [r9, #4]
 8005ce2:	f000 8165 	beq.w	8005fb0 <_malloc_r+0x51c>
 8005ce6:	f8d6 1408 	ldr.w	r1, [r6, #1032]	; 0x408
 8005cea:	f240 1070 	movw	r0, #368	; 0x170
 8005cee:	f2c2 0000 	movt	r0, #8192	; 0x2000
 8005cf2:	3101      	adds	r1, #1
 8005cf4:	bf17      	itett	ne
 8005cf6:	ebc2 0208 	rsbne	r2, r2, r8
 8005cfa:	f8c0 8408 	streq.w	r8, [r0, #1032]	; 0x408
 8005cfe:	189b      	addne	r3, r3, r2
 8005d00:	f8c9 3004 	strne.w	r3, [r9, #4]
 8005d04:	f018 0307 	ands.w	r3, r8, #7
 8005d08:	4638      	mov	r0, r7
 8005d0a:	bf1f      	itttt	ne
 8005d0c:	f1c3 0208 	rsbne	r2, r3, #8
 8005d10:	f5c3 5380 	rsbne	r3, r3, #4096	; 0x1000
 8005d14:	4490      	addne	r8, r2
 8005d16:	f103 0208 	addne.w	r2, r3, #8
 8005d1a:	eb08 030b 	add.w	r3, r8, fp
 8005d1e:	bf08      	it	eq
 8005d20:	f44f 5280 	moveq.w	r2, #4096	; 0x1000
 8005d24:	f3c3 030b 	ubfx	r3, r3, #0, #12
 8005d28:	ebc3 0b02 	rsb	fp, r3, r2
 8005d2c:	4659      	mov	r1, fp
 8005d2e:	f000 fecd 	bl	8006acc <_sbrk_r>
 8005d32:	f240 5290 	movw	r2, #1424	; 0x590
 8005d36:	f8c6 8008 	str.w	r8, [r6, #8]
 8005d3a:	f2c2 0200 	movt	r2, #8192	; 0x2000
 8005d3e:	1c43      	adds	r3, r0, #1
 8005d40:	f8d9 3004 	ldr.w	r3, [r9, #4]
 8005d44:	bf15      	itete	ne
 8005d46:	ebc8 0100 	rsbne	r1, r8, r0
 8005d4a:	2101      	moveq	r1, #1
 8005d4c:	4459      	addne	r1, fp
 8005d4e:	f04f 0b00 	moveq.w	fp, #0
 8005d52:	bf18      	it	ne
 8005d54:	f041 0101 	orrne.w	r1, r1, #1
 8005d58:	42b5      	cmp	r5, r6
 8005d5a:	445b      	add	r3, fp
 8005d5c:	f8c8 1004 	str.w	r1, [r8, #4]
 8005d60:	f8c9 3004 	str.w	r3, [r9, #4]
 8005d64:	d018      	beq.n	8005d98 <_malloc_r+0x304>
 8005d66:	f1ba 0f0f 	cmp.w	sl, #15
 8005d6a:	f240 8100 	bls.w	8005f6e <_malloc_r+0x4da>
 8005d6e:	f1aa 000c 	sub.w	r0, sl, #12
 8005d72:	6869      	ldr	r1, [r5, #4]
 8005d74:	f020 0007 	bic.w	r0, r0, #7
 8005d78:	f04f 0c05 	mov.w	ip, #5
 8005d7c:	eb05 0e00 	add.w	lr, r5, r0
 8005d80:	280f      	cmp	r0, #15
 8005d82:	f001 0101 	and.w	r1, r1, #1
 8005d86:	ea40 0101 	orr.w	r1, r0, r1
 8005d8a:	6069      	str	r1, [r5, #4]
 8005d8c:	f8ce c004 	str.w	ip, [lr, #4]
 8005d90:	f8ce c008 	str.w	ip, [lr, #8]
 8005d94:	f200 8118 	bhi.w	8005fc8 <_malloc_r+0x534>
 8005d98:	f240 5290 	movw	r2, #1424	; 0x590
 8005d9c:	f8d9 102c 	ldr.w	r1, [r9, #44]	; 0x2c
 8005da0:	f2c2 0200 	movt	r2, #8192	; 0x2000
 8005da4:	68b5      	ldr	r5, [r6, #8]
 8005da6:	428b      	cmp	r3, r1
 8005da8:	f8d9 1030 	ldr.w	r1, [r9, #48]	; 0x30
 8005dac:	bf88      	it	hi
 8005dae:	62d3      	strhi	r3, [r2, #44]	; 0x2c
 8005db0:	f240 5290 	movw	r2, #1424	; 0x590
 8005db4:	f2c2 0200 	movt	r2, #8192	; 0x2000
 8005db8:	428b      	cmp	r3, r1
 8005dba:	bf88      	it	hi
 8005dbc:	6313      	strhi	r3, [r2, #48]	; 0x30
 8005dbe:	686a      	ldr	r2, [r5, #4]
 8005dc0:	f022 0203 	bic.w	r2, r2, #3
 8005dc4:	4294      	cmp	r4, r2
 8005dc6:	ebc4 0302 	rsb	r3, r4, r2
 8005dca:	d801      	bhi.n	8005dd0 <_malloc_r+0x33c>
 8005dcc:	2b0f      	cmp	r3, #15
 8005dce:	dc05      	bgt.n	8005ddc <_malloc_r+0x348>
 8005dd0:	4638      	mov	r0, r7
 8005dd2:	f04f 0800 	mov.w	r8, #0
 8005dd6:	f000 f9b3 	bl	8006140 <__malloc_unlock>
 8005dda:	e693      	b.n	8005b04 <_malloc_r+0x70>
 8005ddc:	192a      	adds	r2, r5, r4
 8005dde:	f043 0301 	orr.w	r3, r3, #1
 8005de2:	4638      	mov	r0, r7
 8005de4:	f044 0401 	orr.w	r4, r4, #1
 8005de8:	606c      	str	r4, [r5, #4]
 8005dea:	f105 0808 	add.w	r8, r5, #8
 8005dee:	60b2      	str	r2, [r6, #8]
 8005df0:	6053      	str	r3, [r2, #4]
 8005df2:	f000 f9a5 	bl	8006140 <__malloc_unlock>
 8005df6:	4640      	mov	r0, r8
 8005df8:	b003      	add	sp, #12
 8005dfa:	e8bd 8ff0 	ldmia.w	sp!, {r4, r5, r6, r7, r8, r9, sl, fp, pc}
 8005dfe:	4419      	add	r1, r3
 8005e00:	68da      	ldr	r2, [r3, #12]
 8005e02:	689c      	ldr	r4, [r3, #8]
 8005e04:	4638      	mov	r0, r7
 8005e06:	684d      	ldr	r5, [r1, #4]
 8005e08:	f103 0808 	add.w	r8, r3, #8
 8005e0c:	60e2      	str	r2, [r4, #12]
 8005e0e:	f045 0501 	orr.w	r5, r5, #1
 8005e12:	6094      	str	r4, [r2, #8]
 8005e14:	604d      	str	r5, [r1, #4]
 8005e16:	f000 f993 	bl	8006140 <__malloc_unlock>
 8005e1a:	4640      	mov	r0, r8
 8005e1c:	b003      	add	sp, #12
 8005e1e:	e8bd 8ff0 	ldmia.w	sp!, {r4, r5, r6, r7, r8, r9, sl, fp, pc}
 8005e22:	f1bc 0f14 	cmp.w	ip, #20
 8005e26:	bf9c      	itt	ls
 8005e28:	f10c 0c5b 	addls.w	ip, ip, #91	; 0x5b
 8005e2c:	ea4f 054c 	movls.w	r5, ip, lsl #1
 8005e30:	f67f ae74 	bls.w	8005b1c <_malloc_r+0x88>
 8005e34:	f1bc 0f54 	cmp.w	ip, #84	; 0x54
 8005e38:	f200 808f 	bhi.w	8005f5a <_malloc_r+0x4c6>
 8005e3c:	ea4f 3c14 	mov.w	ip, r4, lsr #12
 8005e40:	f10c 0c6e 	add.w	ip, ip, #110	; 0x6e
 8005e44:	ea4f 054c 	mov.w	r5, ip, lsl #1
 8005e48:	e668      	b.n	8005b1c <_malloc_r+0x88>
 8005e4a:	0a42      	lsrs	r2, r0, #9
 8005e4c:	2a04      	cmp	r2, #4
 8005e4e:	d958      	bls.n	8005f02 <_malloc_r+0x46e>
 8005e50:	2a14      	cmp	r2, #20
 8005e52:	bf9c      	itt	ls
 8005e54:	f102 015b 	addls.w	r1, r2, #91	; 0x5b
 8005e58:	004d      	lslls	r5, r1, #1
 8005e5a:	d905      	bls.n	8005e68 <_malloc_r+0x3d4>
 8005e5c:	2a54      	cmp	r2, #84	; 0x54
 8005e5e:	f200 80bc 	bhi.w	8005fda <_malloc_r+0x546>
 8005e62:	0b01      	lsrs	r1, r0, #12
 8005e64:	316e      	adds	r1, #110	; 0x6e
 8005e66:	004d      	lsls	r5, r1, #1
 8005e68:	eb06 0585 	add.w	r5, r6, r5, lsl #2
 8005e6c:	f240 1870 	movw	r8, #368	; 0x170
 8005e70:	f2c2 0800 	movt	r8, #8192	; 0x2000
 8005e74:	68aa      	ldr	r2, [r5, #8]
 8005e76:	42aa      	cmp	r2, r5
 8005e78:	d07f      	beq.n	8005f7a <_malloc_r+0x4e6>
 8005e7a:	6851      	ldr	r1, [r2, #4]
 8005e7c:	f021 0103 	bic.w	r1, r1, #3
 8005e80:	4288      	cmp	r0, r1
 8005e82:	d202      	bcs.n	8005e8a <_malloc_r+0x3f6>
 8005e84:	6892      	ldr	r2, [r2, #8]
 8005e86:	4295      	cmp	r5, r2
 8005e88:	d1f7      	bne.n	8005e7a <_malloc_r+0x3e6>
 8005e8a:	68d0      	ldr	r0, [r2, #12]
 8005e8c:	6871      	ldr	r1, [r6, #4]
 8005e8e:	60d8      	str	r0, [r3, #12]
 8005e90:	609a      	str	r2, [r3, #8]
 8005e92:	6083      	str	r3, [r0, #8]
 8005e94:	60d3      	str	r3, [r2, #12]
 8005e96:	e68a      	b.n	8005bae <_malloc_r+0x11a>
 8005e98:	191d      	adds	r5, r3, r4
 8005e9a:	f041 0601 	orr.w	r6, r1, #1
 8005e9e:	f044 0401 	orr.w	r4, r4, #1
 8005ea2:	4638      	mov	r0, r7
 8005ea4:	605c      	str	r4, [r3, #4]
 8005ea6:	f103 0808 	add.w	r8, r3, #8
 8005eaa:	6155      	str	r5, [r2, #20]
 8005eac:	6115      	str	r5, [r2, #16]
 8005eae:	f8c5 e00c 	str.w	lr, [r5, #12]
 8005eb2:	f8c5 e008 	str.w	lr, [r5, #8]
 8005eb6:	606e      	str	r6, [r5, #4]
 8005eb8:	5069      	str	r1, [r5, r1]
 8005eba:	f000 f941 	bl	8006140 <__malloc_unlock>
 8005ebe:	e621      	b.n	8005b04 <_malloc_r+0x70>
 8005ec0:	f109 0901 	add.w	r9, r9, #1
 8005ec4:	3008      	adds	r0, #8
 8005ec6:	f019 0f03 	tst.w	r9, #3
 8005eca:	f47f ae89 	bne.w	8005be0 <_malloc_r+0x14c>
 8005ece:	e028      	b.n	8005f22 <_malloc_r+0x48e>
 8005ed0:	f103 0208 	add.w	r2, r3, #8
 8005ed4:	695b      	ldr	r3, [r3, #20]
 8005ed6:	429a      	cmp	r2, r3
 8005ed8:	bf08      	it	eq
 8005eda:	f10c 0c02 	addeq.w	ip, ip, #2
 8005ede:	f43f ae37 	beq.w	8005b50 <_malloc_r+0xbc>
 8005ee2:	e5fe      	b.n	8005ae2 <_malloc_r+0x4e>
 8005ee4:	4690      	mov	r8, r2
 8005ee6:	4415      	add	r5, r2
 8005ee8:	68d3      	ldr	r3, [r2, #12]
 8005eea:	4638      	mov	r0, r7
 8005eec:	f858 2f08 	ldr.w	r2, [r8, #8]!
 8005ef0:	6869      	ldr	r1, [r5, #4]
 8005ef2:	f041 0101 	orr.w	r1, r1, #1
 8005ef6:	6069      	str	r1, [r5, #4]
 8005ef8:	60d3      	str	r3, [r2, #12]
 8005efa:	609a      	str	r2, [r3, #8]
 8005efc:	f000 f920 	bl	8006140 <__malloc_unlock>
 8005f00:	e600      	b.n	8005b04 <_malloc_r+0x70>
 8005f02:	0981      	lsrs	r1, r0, #6
 8005f04:	3138      	adds	r1, #56	; 0x38
 8005f06:	004d      	lsls	r5, r1, #1
 8005f08:	e7ae      	b.n	8005e68 <_malloc_r+0x3d4>
 8005f0a:	42b5      	cmp	r5, r6
 8005f0c:	f43f aee3 	beq.w	8005cd6 <_malloc_r+0x242>
 8005f10:	68b5      	ldr	r5, [r6, #8]
 8005f12:	686a      	ldr	r2, [r5, #4]
 8005f14:	f022 0203 	bic.w	r2, r2, #3
 8005f18:	e754      	b.n	8005dc4 <_malloc_r+0x330>
 8005f1a:	f8d8 8000 	ldr.w	r8, [r8]
 8005f1e:	4590      	cmp	r8, r2
 8005f20:	d16d      	bne.n	8005ffe <_malloc_r+0x56a>
 8005f22:	f01c 0f03 	tst.w	ip, #3
 8005f26:	f1a8 0208 	sub.w	r2, r8, #8
 8005f2a:	f10c 3cff 	add.w	ip, ip, #4294967295
 8005f2e:	d1f4      	bne.n	8005f1a <_malloc_r+0x486>
 8005f30:	6872      	ldr	r2, [r6, #4]
 8005f32:	ea22 0203 	bic.w	r2, r2, r3
 8005f36:	6072      	str	r2, [r6, #4]
 8005f38:	005b      	lsls	r3, r3, #1
 8005f3a:	4293      	cmp	r3, r2
 8005f3c:	f63f ae9b 	bhi.w	8005c76 <_malloc_r+0x1e2>
 8005f40:	2b00      	cmp	r3, #0
 8005f42:	f43f ae98 	beq.w	8005c76 <_malloc_r+0x1e2>
 8005f46:	421a      	tst	r2, r3
 8005f48:	46cc      	mov	ip, r9
 8005f4a:	f47f ae45 	bne.w	8005bd8 <_malloc_r+0x144>
 8005f4e:	005b      	lsls	r3, r3, #1
 8005f50:	f10c 0c04 	add.w	ip, ip, #4
 8005f54:	421a      	tst	r2, r3
 8005f56:	d0fa      	beq.n	8005f4e <_malloc_r+0x4ba>
 8005f58:	e63e      	b.n	8005bd8 <_malloc_r+0x144>
 8005f5a:	f5bc 7faa 	cmp.w	ip, #340	; 0x154
 8005f5e:	d818      	bhi.n	8005f92 <_malloc_r+0x4fe>
 8005f60:	ea4f 3cd4 	mov.w	ip, r4, lsr #15
 8005f64:	f10c 0c77 	add.w	ip, ip, #119	; 0x77
 8005f68:	ea4f 054c 	mov.w	r5, ip, lsl #1
 8005f6c:	e5d6      	b.n	8005b1c <_malloc_r+0x88>
 8005f6e:	2301      	movs	r3, #1
 8005f70:	4645      	mov	r5, r8
 8005f72:	f8c8 3004 	str.w	r3, [r8, #4]
 8005f76:	2200      	movs	r2, #0
 8005f78:	e724      	b.n	8005dc4 <_malloc_r+0x330>
 8005f7a:	f04f 0901 	mov.w	r9, #1
 8005f7e:	108d      	asrs	r5, r1, #2
 8005f80:	f8d8 1004 	ldr.w	r1, [r8, #4]
 8005f84:	4610      	mov	r0, r2
 8005f86:	fa09 f505 	lsl.w	r5, r9, r5
 8005f8a:	4329      	orrs	r1, r5
 8005f8c:	f8c8 1004 	str.w	r1, [r8, #4]
 8005f90:	e77d      	b.n	8005e8e <_malloc_r+0x3fa>
 8005f92:	f240 5354 	movw	r3, #1364	; 0x554
 8005f96:	459c      	cmp	ip, r3
 8005f98:	bf95      	itete	ls
 8005f9a:	ea4f 4c94 	movls.w	ip, r4, lsr #18
 8005f9e:	25fc      	movhi	r5, #252	; 0xfc
 8005fa0:	f10c 0c7c 	addls.w	ip, ip, #124	; 0x7c
 8005fa4:	f04f 0c7e 	movhi.w	ip, #126	; 0x7e
 8005fa8:	bf98      	it	ls
 8005faa:	ea4f 054c 	movls.w	r5, ip, lsl #1
 8005fae:	e5b5      	b.n	8005b1c <_malloc_r+0x88>
 8005fb0:	f3c2 010b 	ubfx	r1, r2, #0, #12
 8005fb4:	2900      	cmp	r1, #0
 8005fb6:	f47f ae96 	bne.w	8005ce6 <_malloc_r+0x252>
 8005fba:	68b2      	ldr	r2, [r6, #8]
 8005fbc:	eb0b 010a 	add.w	r1, fp, sl
 8005fc0:	f041 0101 	orr.w	r1, r1, #1
 8005fc4:	6051      	str	r1, [r2, #4]
 8005fc6:	e6e7      	b.n	8005d98 <_malloc_r+0x304>
 8005fc8:	f105 0108 	add.w	r1, r5, #8
 8005fcc:	4638      	mov	r0, r7
 8005fce:	9201      	str	r2, [sp, #4]
 8005fd0:	f001 fd52 	bl	8007a78 <_free_r>
 8005fd4:	9a01      	ldr	r2, [sp, #4]
 8005fd6:	6853      	ldr	r3, [r2, #4]
 8005fd8:	e6de      	b.n	8005d98 <_malloc_r+0x304>
 8005fda:	f5b2 7faa 	cmp.w	r2, #340	; 0x154
 8005fde:	d803      	bhi.n	8005fe8 <_malloc_r+0x554>
 8005fe0:	0bc1      	lsrs	r1, r0, #15
 8005fe2:	3177      	adds	r1, #119	; 0x77
 8005fe4:	004d      	lsls	r5, r1, #1
 8005fe6:	e73f      	b.n	8005e68 <_malloc_r+0x3d4>
 8005fe8:	f240 5154 	movw	r1, #1364	; 0x554
 8005fec:	428a      	cmp	r2, r1
 8005fee:	bf95      	itete	ls
 8005ff0:	0c81      	lsrls	r1, r0, #18
 8005ff2:	25fc      	movhi	r5, #252	; 0xfc
 8005ff4:	317c      	addls	r1, #124	; 0x7c
 8005ff6:	217e      	movhi	r1, #126	; 0x7e
 8005ff8:	bf98      	it	ls
 8005ffa:	004d      	lslls	r5, r1, #1
 8005ffc:	e734      	b.n	8005e68 <_malloc_r+0x3d4>
 8005ffe:	6872      	ldr	r2, [r6, #4]
 8006000:	e79a      	b.n	8005f38 <_malloc_r+0x4a4>
 8006002:	bf00      	nop

08006004 <memchr>:
 8006004:	0783      	lsls	r3, r0, #30
 8006006:	b2c9      	uxtb	r1, r1
 8006008:	b470      	push	{r4, r5, r6}
 800600a:	d03f      	beq.n	800608c <memchr+0x88>
 800600c:	1e54      	subs	r4, r2, #1
 800600e:	b32a      	cbz	r2, 800605c <memchr+0x58>
 8006010:	7803      	ldrb	r3, [r0, #0]
 8006012:	428b      	cmp	r3, r1
 8006014:	d023      	beq.n	800605e <memchr+0x5a>
 8006016:	1c43      	adds	r3, r0, #1
 8006018:	e004      	b.n	8006024 <memchr+0x20>
 800601a:	b1fc      	cbz	r4, 800605c <memchr+0x58>
 800601c:	7805      	ldrb	r5, [r0, #0]
 800601e:	4614      	mov	r4, r2
 8006020:	428d      	cmp	r5, r1
 8006022:	d01c      	beq.n	800605e <memchr+0x5a>
 8006024:	f013 0f03 	tst.w	r3, #3
 8006028:	4618      	mov	r0, r3
 800602a:	f104 32ff 	add.w	r2, r4, #4294967295
 800602e:	f103 0301 	add.w	r3, r3, #1
 8006032:	d1f2      	bne.n	800601a <memchr+0x16>
 8006034:	2c03      	cmp	r4, #3
 8006036:	d814      	bhi.n	8006062 <memchr+0x5e>
 8006038:	1e65      	subs	r5, r4, #1
 800603a:	b34c      	cbz	r4, 8006090 <memchr+0x8c>
 800603c:	7803      	ldrb	r3, [r0, #0]
 800603e:	428b      	cmp	r3, r1
 8006040:	d00d      	beq.n	800605e <memchr+0x5a>
 8006042:	1c42      	adds	r2, r0, #1
 8006044:	2300      	movs	r3, #0
 8006046:	e002      	b.n	800604e <memchr+0x4a>
 8006048:	7804      	ldrb	r4, [r0, #0]
 800604a:	428c      	cmp	r4, r1
 800604c:	d007      	beq.n	800605e <memchr+0x5a>
 800604e:	42ab      	cmp	r3, r5
 8006050:	4610      	mov	r0, r2
 8006052:	f103 0301 	add.w	r3, r3, #1
 8006056:	f102 0201 	add.w	r2, r2, #1
 800605a:	d1f5      	bne.n	8006048 <memchr+0x44>
 800605c:	2000      	movs	r0, #0
 800605e:	bc70      	pop	{r4, r5, r6}
 8006060:	4770      	bx	lr
 8006062:	ea41 2601 	orr.w	r6, r1, r1, lsl #8
 8006066:	4603      	mov	r3, r0
 8006068:	ea46 4606 	orr.w	r6, r6, r6, lsl #16
 800606c:	4618      	mov	r0, r3
 800606e:	3304      	adds	r3, #4
 8006070:	6802      	ldr	r2, [r0, #0]
 8006072:	4072      	eors	r2, r6
 8006074:	f1a2 3501 	sub.w	r5, r2, #16843009	; 0x1010101
 8006078:	ea25 0202 	bic.w	r2, r5, r2
 800607c:	f012 3f80 	tst.w	r2, #2155905152	; 0x80808080
 8006080:	d1da      	bne.n	8006038 <memchr+0x34>
 8006082:	3c04      	subs	r4, #4
 8006084:	4618      	mov	r0, r3
 8006086:	2c03      	cmp	r4, #3
 8006088:	d8f0      	bhi.n	800606c <memchr+0x68>
 800608a:	e7d5      	b.n	8006038 <memchr+0x34>
 800608c:	4614      	mov	r4, r2
 800608e:	e7d1      	b.n	8006034 <memchr+0x30>
 8006090:	4620      	mov	r0, r4
 8006092:	e7e4      	b.n	800605e <memchr+0x5a>

08006094 <memcpy>:
 8006094:	2a0f      	cmp	r2, #15
 8006096:	b4f0      	push	{r4, r5, r6, r7}
 8006098:	d945      	bls.n	8006126 <memcpy+0x92>
 800609a:	ea40 0301 	orr.w	r3, r0, r1
 800609e:	079b      	lsls	r3, r3, #30
 80060a0:	d145      	bne.n	800612e <memcpy+0x9a>
 80060a2:	f1a2 0710 	sub.w	r7, r2, #16
 80060a6:	460c      	mov	r4, r1
 80060a8:	4603      	mov	r3, r0
 80060aa:	093f      	lsrs	r7, r7, #4
 80060ac:	eb00 1607 	add.w	r6, r0, r7, lsl #4
 80060b0:	3610      	adds	r6, #16
 80060b2:	6825      	ldr	r5, [r4, #0]
 80060b4:	3310      	adds	r3, #16
 80060b6:	3410      	adds	r4, #16
 80060b8:	f843 5c10 	str.w	r5, [r3, #-16]
 80060bc:	f854 5c0c 	ldr.w	r5, [r4, #-12]
 80060c0:	f843 5c0c 	str.w	r5, [r3, #-12]
 80060c4:	f854 5c08 	ldr.w	r5, [r4, #-8]
 80060c8:	f843 5c08 	str.w	r5, [r3, #-8]
 80060cc:	f854 5c04 	ldr.w	r5, [r4, #-4]
 80060d0:	f843 5c04 	str.w	r5, [r3, #-4]
 80060d4:	42b3      	cmp	r3, r6
 80060d6:	d1ec      	bne.n	80060b2 <memcpy+0x1e>
 80060d8:	1c7b      	adds	r3, r7, #1
 80060da:	f002 0c0f 	and.w	ip, r2, #15
 80060de:	f1bc 0f03 	cmp.w	ip, #3
 80060e2:	ea4f 1303 	mov.w	r3, r3, lsl #4
 80060e6:	4419      	add	r1, r3
 80060e8:	4403      	add	r3, r0
 80060ea:	d922      	bls.n	8006132 <memcpy+0x9e>
 80060ec:	460e      	mov	r6, r1
 80060ee:	461d      	mov	r5, r3
 80060f0:	4664      	mov	r4, ip
 80060f2:	f856 7b04 	ldr.w	r7, [r6], #4
 80060f6:	3c04      	subs	r4, #4
 80060f8:	2c03      	cmp	r4, #3
 80060fa:	f845 7b04 	str.w	r7, [r5], #4
 80060fe:	d8f8      	bhi.n	80060f2 <memcpy+0x5e>
 8006100:	f1ac 0404 	sub.w	r4, ip, #4
 8006104:	f002 0203 	and.w	r2, r2, #3
 8006108:	f024 0403 	bic.w	r4, r4, #3
 800610c:	3404      	adds	r4, #4
 800610e:	4423      	add	r3, r4
 8006110:	4421      	add	r1, r4
 8006112:	b132      	cbz	r2, 8006122 <memcpy+0x8e>
 8006114:	440a      	add	r2, r1
 8006116:	f811 4b01 	ldrb.w	r4, [r1], #1
 800611a:	4291      	cmp	r1, r2
 800611c:	f803 4b01 	strb.w	r4, [r3], #1
 8006120:	d1f9      	bne.n	8006116 <memcpy+0x82>
 8006122:	bcf0      	pop	{r4, r5, r6, r7}
 8006124:	4770      	bx	lr
 8006126:	4603      	mov	r3, r0
 8006128:	2a00      	cmp	r2, #0
 800612a:	d1f3      	bne.n	8006114 <memcpy+0x80>
 800612c:	e7f9      	b.n	8006122 <memcpy+0x8e>
 800612e:	4603      	mov	r3, r0
 8006130:	e7f0      	b.n	8006114 <memcpy+0x80>
 8006132:	4662      	mov	r2, ip
 8006134:	2a00      	cmp	r2, #0
 8006136:	d1ed      	bne.n	8006114 <memcpy+0x80>
 8006138:	e7f3      	b.n	8006122 <memcpy+0x8e>
 800613a:	bf00      	nop

0800613c <__malloc_lock>:
 800613c:	4770      	bx	lr
 800613e:	bf00      	nop

08006140 <__malloc_unlock>:
 8006140:	4770      	bx	lr
 8006142:	bf00      	nop

08006144 <_Balloc>:
 8006144:	b570      	push	{r4, r5, r6, lr}
 8006146:	4606      	mov	r6, r0
 8006148:	6a44      	ldr	r4, [r0, #36]	; 0x24
 800614a:	460d      	mov	r5, r1
 800614c:	b164      	cbz	r4, 8006168 <_Balloc+0x24>
 800614e:	68e2      	ldr	r2, [r4, #12]
 8006150:	b19a      	cbz	r2, 800617a <_Balloc+0x36>
 8006152:	f852 3025 	ldr.w	r3, [r2, r5, lsl #2]
 8006156:	b1e3      	cbz	r3, 8006192 <_Balloc+0x4e>
 8006158:	6819      	ldr	r1, [r3, #0]
 800615a:	f842 1025 	str.w	r1, [r2, r5, lsl #2]
 800615e:	2200      	movs	r2, #0
 8006160:	4618      	mov	r0, r3
 8006162:	611a      	str	r2, [r3, #16]
 8006164:	60da      	str	r2, [r3, #12]
 8006166:	bd70      	pop	{r4, r5, r6, pc}
 8006168:	2010      	movs	r0, #16
 800616a:	f7ff fc83 	bl	8005a74 <malloc>
 800616e:	6270      	str	r0, [r6, #36]	; 0x24
 8006170:	6044      	str	r4, [r0, #4]
 8006172:	6084      	str	r4, [r0, #8]
 8006174:	6004      	str	r4, [r0, #0]
 8006176:	60c4      	str	r4, [r0, #12]
 8006178:	4604      	mov	r4, r0
 800617a:	2221      	movs	r2, #33	; 0x21
 800617c:	4630      	mov	r0, r6
 800617e:	2104      	movs	r1, #4
 8006180:	f001 fbf6 	bl	8007970 <_calloc_r>
 8006184:	6a73      	ldr	r3, [r6, #36]	; 0x24
 8006186:	60e0      	str	r0, [r4, #12]
 8006188:	68da      	ldr	r2, [r3, #12]
 800618a:	2a00      	cmp	r2, #0
 800618c:	d1e1      	bne.n	8006152 <_Balloc+0xe>
 800618e:	2000      	movs	r0, #0
 8006190:	bd70      	pop	{r4, r5, r6, pc}
 8006192:	2301      	movs	r3, #1
 8006194:	4630      	mov	r0, r6
 8006196:	4619      	mov	r1, r3
 8006198:	fa03 f405 	lsl.w	r4, r3, r5
 800619c:	1d62      	adds	r2, r4, #5
 800619e:	0092      	lsls	r2, r2, #2
 80061a0:	f001 fbe6 	bl	8007970 <_calloc_r>
 80061a4:	4603      	mov	r3, r0
 80061a6:	2800      	cmp	r0, #0
 80061a8:	d0f1      	beq.n	800618e <_Balloc+0x4a>
 80061aa:	6045      	str	r5, [r0, #4]
 80061ac:	6084      	str	r4, [r0, #8]
 80061ae:	e7d6      	b.n	800615e <_Balloc+0x1a>

080061b0 <_Bfree>:
 80061b0:	b530      	push	{r4, r5, lr}
 80061b2:	4604      	mov	r4, r0
 80061b4:	6a45      	ldr	r5, [r0, #36]	; 0x24
 80061b6:	b083      	sub	sp, #12
 80061b8:	b155      	cbz	r5, 80061d0 <_Bfree+0x20>
 80061ba:	b139      	cbz	r1, 80061cc <_Bfree+0x1c>
 80061bc:	6a63      	ldr	r3, [r4, #36]	; 0x24
 80061be:	684a      	ldr	r2, [r1, #4]
 80061c0:	68db      	ldr	r3, [r3, #12]
 80061c2:	f853 0022 	ldr.w	r0, [r3, r2, lsl #2]
 80061c6:	6008      	str	r0, [r1, #0]
 80061c8:	f843 1022 	str.w	r1, [r3, r2, lsl #2]
 80061cc:	b003      	add	sp, #12
 80061ce:	bd30      	pop	{r4, r5, pc}
 80061d0:	2010      	movs	r0, #16
 80061d2:	9101      	str	r1, [sp, #4]
 80061d4:	f7ff fc4e 	bl	8005a74 <malloc>
 80061d8:	9901      	ldr	r1, [sp, #4]
 80061da:	6260      	str	r0, [r4, #36]	; 0x24
 80061dc:	6045      	str	r5, [r0, #4]
 80061de:	6085      	str	r5, [r0, #8]
 80061e0:	6005      	str	r5, [r0, #0]
 80061e2:	60c5      	str	r5, [r0, #12]
 80061e4:	e7e9      	b.n	80061ba <_Bfree+0xa>
 80061e6:	bf00      	nop

080061e8 <__multadd>:
 80061e8:	e92d 47f0 	stmdb	sp!, {r4, r5, r6, r7, r8, r9, sl, lr}
 80061ec:	4688      	mov	r8, r1
 80061ee:	f8d1 a010 	ldr.w	sl, [r1, #16]
 80061f2:	b082      	sub	sp, #8
 80061f4:	4681      	mov	r9, r0
 80061f6:	f101 0514 	add.w	r5, r1, #20
 80061fa:	2400      	movs	r4, #0
 80061fc:	682f      	ldr	r7, [r5, #0]
 80061fe:	3401      	adds	r4, #1
 8006200:	45a2      	cmp	sl, r4
 8006202:	b2be      	uxth	r6, r7
 8006204:	ea4f 4717 	mov.w	r7, r7, lsr #16
 8006208:	fb02 3606 	mla	r6, r2, r6, r3
 800620c:	fb02 f307 	mul.w	r3, r2, r7
 8006210:	eb03 4316 	add.w	r3, r3, r6, lsr #16
 8006214:	b2b6      	uxth	r6, r6
 8006216:	eb06 4603 	add.w	r6, r6, r3, lsl #16
 800621a:	ea4f 4313 	mov.w	r3, r3, lsr #16
 800621e:	f845 6b04 	str.w	r6, [r5], #4
 8006222:	dceb      	bgt.n	80061fc <__multadd+0x14>
 8006224:	b153      	cbz	r3, 800623c <__multadd+0x54>
 8006226:	f8d8 2008 	ldr.w	r2, [r8, #8]
 800622a:	4592      	cmp	sl, r2
 800622c:	da0a      	bge.n	8006244 <__multadd+0x5c>
 800622e:	eb08 018a 	add.w	r1, r8, sl, lsl #2
 8006232:	f10a 0201 	add.w	r2, sl, #1
 8006236:	614b      	str	r3, [r1, #20]
 8006238:	f8c8 2010 	str.w	r2, [r8, #16]
 800623c:	4640      	mov	r0, r8
 800623e:	b002      	add	sp, #8
 8006240:	e8bd 87f0 	ldmia.w	sp!, {r4, r5, r6, r7, r8, r9, sl, pc}
 8006244:	f8d8 1004 	ldr.w	r1, [r8, #4]
 8006248:	4648      	mov	r0, r9
 800624a:	9301      	str	r3, [sp, #4]
 800624c:	3101      	adds	r1, #1
 800624e:	f7ff ff79 	bl	8006144 <_Balloc>
 8006252:	f8d8 2010 	ldr.w	r2, [r8, #16]
 8006256:	f108 010c 	add.w	r1, r8, #12
 800625a:	3202      	adds	r2, #2
 800625c:	0092      	lsls	r2, r2, #2
 800625e:	4604      	mov	r4, r0
 8006260:	300c      	adds	r0, #12
 8006262:	f7ff ff17 	bl	8006094 <memcpy>
 8006266:	4641      	mov	r1, r8
 8006268:	4648      	mov	r0, r9
 800626a:	46a0      	mov	r8, r4
 800626c:	f7ff ffa0 	bl	80061b0 <_Bfree>
 8006270:	9b01      	ldr	r3, [sp, #4]
 8006272:	e7dc      	b.n	800622e <__multadd+0x46>

08006274 <__s2b>:
 8006274:	e92d 43f8 	stmdb	sp!, {r3, r4, r5, r6, r7, r8, r9, lr}
 8006278:	4699      	mov	r9, r3
 800627a:	f648 6339 	movw	r3, #36409	; 0x8e39
 800627e:	f109 0508 	add.w	r5, r9, #8
 8006282:	f6c3 03e3 	movt	r3, #14563	; 0x38e3
 8006286:	460c      	mov	r4, r1
 8006288:	4607      	mov	r7, r0
 800628a:	4690      	mov	r8, r2
 800628c:	fb83 1305 	smull	r1, r3, r3, r5
 8006290:	17ed      	asrs	r5, r5, #31
 8006292:	9e08      	ldr	r6, [sp, #32]
 8006294:	ebc5 0363 	rsb	r3, r5, r3, asr #1
 8006298:	2b01      	cmp	r3, #1
 800629a:	dd35      	ble.n	8006308 <__s2b+0x94>
 800629c:	2501      	movs	r5, #1
 800629e:	2100      	movs	r1, #0
 80062a0:	006d      	lsls	r5, r5, #1
 80062a2:	3101      	adds	r1, #1
 80062a4:	42ab      	cmp	r3, r5
 80062a6:	dcfb      	bgt.n	80062a0 <__s2b+0x2c>
 80062a8:	4638      	mov	r0, r7
 80062aa:	f7ff ff4b 	bl	8006144 <_Balloc>
 80062ae:	f1b8 0f09 	cmp.w	r8, #9
 80062b2:	f04f 0301 	mov.w	r3, #1
 80062b6:	bfdc      	itt	le
 80062b8:	340a      	addle	r4, #10
 80062ba:	f04f 0809 	movle.w	r8, #9
 80062be:	6146      	str	r6, [r0, #20]
 80062c0:	6103      	str	r3, [r0, #16]
 80062c2:	dd10      	ble.n	80062e6 <__s2b+0x72>
 80062c4:	f104 0609 	add.w	r6, r4, #9
 80062c8:	4444      	add	r4, r8
 80062ca:	4635      	mov	r5, r6
 80062cc:	f815 3b01 	ldrb.w	r3, [r5], #1
 80062d0:	4601      	mov	r1, r0
 80062d2:	220a      	movs	r2, #10
 80062d4:	4638      	mov	r0, r7
 80062d6:	3b30      	subs	r3, #48	; 0x30
 80062d8:	f7ff ff86 	bl	80061e8 <__multadd>
 80062dc:	42a5      	cmp	r5, r4
 80062de:	d1f5      	bne.n	80062cc <__s2b+0x58>
 80062e0:	eb06 0408 	add.w	r4, r6, r8
 80062e4:	3c08      	subs	r4, #8
 80062e6:	45c1      	cmp	r9, r8
 80062e8:	dd0c      	ble.n	8006304 <__s2b+0x90>
 80062ea:	ebc8 0809 	rsb	r8, r8, r9
 80062ee:	44a0      	add	r8, r4
 80062f0:	f814 3b01 	ldrb.w	r3, [r4], #1
 80062f4:	4601      	mov	r1, r0
 80062f6:	220a      	movs	r2, #10
 80062f8:	4638      	mov	r0, r7
 80062fa:	3b30      	subs	r3, #48	; 0x30
 80062fc:	f7ff ff74 	bl	80061e8 <__multadd>
 8006300:	4544      	cmp	r4, r8
 8006302:	d1f5      	bne.n	80062f0 <__s2b+0x7c>
 8006304:	e8bd 83f8 	ldmia.w	sp!, {r3, r4, r5, r6, r7, r8, r9, pc}
 8006308:	2100      	movs	r1, #0
 800630a:	e7cd      	b.n	80062a8 <__s2b+0x34>

0800630c <__hi0bits>:
 800630c:	0c03      	lsrs	r3, r0, #16
 800630e:	bf06      	itte	eq
 8006310:	0400      	lsleq	r0, r0, #16
 8006312:	2310      	moveq	r3, #16
 8006314:	2300      	movne	r3, #0
 8006316:	f010 4f7f 	tst.w	r0, #4278190080	; 0xff000000
 800631a:	bf04      	itt	eq
 800631c:	0200      	lsleq	r0, r0, #8
 800631e:	3308      	addeq	r3, #8
 8006320:	f010 4f70 	tst.w	r0, #4026531840	; 0xf0000000
 8006324:	bf04      	itt	eq
 8006326:	0100      	lsleq	r0, r0, #4
 8006328:	3304      	addeq	r3, #4
 800632a:	f010 4f40 	tst.w	r0, #3221225472	; 0xc0000000
 800632e:	bf04      	itt	eq
 8006330:	0080      	lsleq	r0, r0, #2
 8006332:	3302      	addeq	r3, #2
 8006334:	2800      	cmp	r0, #0
 8006336:	db05      	blt.n	8006344 <__hi0bits+0x38>
 8006338:	0042      	lsls	r2, r0, #1
 800633a:	d401      	bmi.n	8006340 <__hi0bits+0x34>
 800633c:	2020      	movs	r0, #32
 800633e:	4770      	bx	lr
 8006340:	1c58      	adds	r0, r3, #1
 8006342:	4770      	bx	lr
 8006344:	4618      	mov	r0, r3
 8006346:	4770      	bx	lr

08006348 <__lo0bits>:
 8006348:	6803      	ldr	r3, [r0, #0]
 800634a:	4602      	mov	r2, r0
 800634c:	f013 0007 	ands.w	r0, r3, #7
 8006350:	d009      	beq.n	8006366 <__lo0bits+0x1e>
 8006352:	07d9      	lsls	r1, r3, #31
 8006354:	d421      	bmi.n	800639a <__lo0bits+0x52>
 8006356:	0798      	lsls	r0, r3, #30
 8006358:	bf4b      	itete	mi
 800635a:	085b      	lsrmi	r3, r3, #1
 800635c:	089b      	lsrpl	r3, r3, #2
 800635e:	2001      	movmi	r0, #1
 8006360:	2002      	movpl	r0, #2
 8006362:	6013      	str	r3, [r2, #0]
 8006364:	4770      	bx	lr
 8006366:	b299      	uxth	r1, r3
 8006368:	b909      	cbnz	r1, 800636e <__lo0bits+0x26>
 800636a:	0c1b      	lsrs	r3, r3, #16
 800636c:	2010      	movs	r0, #16
 800636e:	f013 0fff 	tst.w	r3, #255	; 0xff
 8006372:	bf04      	itt	eq
 8006374:	0a1b      	lsreq	r3, r3, #8
 8006376:	3008      	addeq	r0, #8
 8006378:	0719      	lsls	r1, r3, #28
 800637a:	bf04      	itt	eq
 800637c:	091b      	lsreq	r3, r3, #4
 800637e:	3004      	addeq	r0, #4
 8006380:	0799      	lsls	r1, r3, #30
 8006382:	bf04      	itt	eq
 8006384:	089b      	lsreq	r3, r3, #2
 8006386:	3002      	addeq	r0, #2
 8006388:	07d9      	lsls	r1, r3, #31
 800638a:	d404      	bmi.n	8006396 <__lo0bits+0x4e>
 800638c:	085b      	lsrs	r3, r3, #1
 800638e:	d101      	bne.n	8006394 <__lo0bits+0x4c>
 8006390:	2020      	movs	r0, #32
 8006392:	4770      	bx	lr
 8006394:	3001      	adds	r0, #1
 8006396:	6013      	str	r3, [r2, #0]
 8006398:	4770      	bx	lr
 800639a:	2000      	movs	r0, #0
 800639c:	4770      	bx	lr
 800639e:	bf00      	nop

080063a0 <__i2b>:
 80063a0:	b510      	push	{r4, lr}
 80063a2:	460c      	mov	r4, r1
 80063a4:	2101      	movs	r1, #1
 80063a6:	f7ff fecd 	bl	8006144 <_Balloc>
 80063aa:	2201      	movs	r2, #1
 80063ac:	6144      	str	r4, [r0, #20]
 80063ae:	6102      	str	r2, [r0, #16]
 80063b0:	bd10      	pop	{r4, pc}
 80063b2:	bf00      	nop

080063b4 <__multiply>:
 80063b4:	e92d 4ff0 	stmdb	sp!, {r4, r5, r6, r7, r8, r9, sl, fp, lr}
 80063b8:	460c      	mov	r4, r1
 80063ba:	690e      	ldr	r6, [r1, #16]
 80063bc:	b085      	sub	sp, #20
 80063be:	6915      	ldr	r5, [r2, #16]
 80063c0:	4693      	mov	fp, r2
 80063c2:	42ae      	cmp	r6, r5
 80063c4:	da04      	bge.n	80063d0 <__multiply+0x1c>
 80063c6:	4632      	mov	r2, r6
 80063c8:	465c      	mov	r4, fp
 80063ca:	462e      	mov	r6, r5
 80063cc:	468b      	mov	fp, r1
 80063ce:	4615      	mov	r5, r2
 80063d0:	68a3      	ldr	r3, [r4, #8]
 80063d2:	eb06 0905 	add.w	r9, r6, r5
 80063d6:	6861      	ldr	r1, [r4, #4]
 80063d8:	4599      	cmp	r9, r3
 80063da:	bfc8      	it	gt
 80063dc:	3101      	addgt	r1, #1
 80063de:	f7ff feb1 	bl	8006144 <_Balloc>
 80063e2:	f100 0a14 	add.w	sl, r0, #20
 80063e6:	9002      	str	r0, [sp, #8]
 80063e8:	eb0a 0189 	add.w	r1, sl, r9, lsl #2
 80063ec:	9101      	str	r1, [sp, #4]
 80063ee:	458a      	cmp	sl, r1
 80063f0:	d206      	bcs.n	8006400 <__multiply+0x4c>
 80063f2:	9a01      	ldr	r2, [sp, #4]
 80063f4:	4653      	mov	r3, sl
 80063f6:	2000      	movs	r0, #0
 80063f8:	f843 0b04 	str.w	r0, [r3], #4
 80063fc:	429a      	cmp	r2, r3
 80063fe:	d8fb      	bhi.n	80063f8 <__multiply+0x44>
 8006400:	f10b 0b14 	add.w	fp, fp, #20
 8006404:	3414      	adds	r4, #20
 8006406:	eb0b 0585 	add.w	r5, fp, r5, lsl #2
 800640a:	9400      	str	r4, [sp, #0]
 800640c:	45ab      	cmp	fp, r5
 800640e:	eb04 0686 	add.w	r6, r4, r6, lsl #2
 8006412:	bf3c      	itt	cc
 8006414:	f8cd 900c 	strcc.w	r9, [sp, #12]
 8006418:	46a9      	movcc	r9, r5
 800641a:	d254      	bcs.n	80064c6 <__multiply+0x112>
 800641c:	f85b 3b04 	ldr.w	r3, [fp], #4
 8006420:	b29c      	uxth	r4, r3
 8006422:	2c00      	cmp	r4, #0
 8006424:	d064      	beq.n	80064f0 <__multiply+0x13c>
 8006426:	9900      	ldr	r1, [sp, #0]
 8006428:	4652      	mov	r2, sl
 800642a:	2500      	movs	r5, #0
 800642c:	46a4      	mov	ip, r4
 800642e:	e000      	b.n	8006432 <__multiply+0x7e>
 8006430:	461a      	mov	r2, r3
 8006432:	f851 4b04 	ldr.w	r4, [r1], #4
 8006436:	4613      	mov	r3, r2
 8006438:	6817      	ldr	r7, [r2, #0]
 800643a:	428e      	cmp	r6, r1
 800643c:	fa1f f884 	uxth.w	r8, r4
 8006440:	ea4f 4414 	mov.w	r4, r4, lsr #16
 8006444:	b2b8      	uxth	r0, r7
 8006446:	ea4f 4717 	mov.w	r7, r7, lsr #16
 800644a:	fb0c 0808 	mla	r8, ip, r8, r0
 800644e:	fb0c 7004 	mla	r0, ip, r4, r7
 8006452:	4445      	add	r5, r8
 8006454:	eb00 4015 	add.w	r0, r0, r5, lsr #16
 8006458:	b2ad      	uxth	r5, r5
 800645a:	ea45 4400 	orr.w	r4, r5, r0, lsl #16
 800645e:	ea4f 4510 	mov.w	r5, r0, lsr #16
 8006462:	f843 4b04 	str.w	r4, [r3], #4
 8006466:	d8e3      	bhi.n	8006430 <__multiply+0x7c>
 8006468:	6055      	str	r5, [r2, #4]
 800646a:	f85b 4c04 	ldr.w	r4, [fp, #-4]
 800646e:	0c24      	lsrs	r4, r4, #16
 8006470:	d023      	beq.n	80064ba <__multiply+0x106>
 8006472:	f8da 1000 	ldr.w	r1, [sl]
 8006476:	4650      	mov	r0, sl
 8006478:	9b00      	ldr	r3, [sp, #0]
 800647a:	2700      	movs	r7, #0
 800647c:	460d      	mov	r5, r1
 800647e:	e000      	b.n	8006482 <__multiply+0xce>
 8006480:	4610      	mov	r0, r2
 8006482:	f8b3 c000 	ldrh.w	ip, [r3]
 8006486:	0c2d      	lsrs	r5, r5, #16
 8006488:	4602      	mov	r2, r0
 800648a:	b289      	uxth	r1, r1
 800648c:	fb04 550c 	mla	r5, r4, ip, r5
 8006490:	442f      	add	r7, r5
 8006492:	ea41 4107 	orr.w	r1, r1, r7, lsl #16
 8006496:	f842 1b04 	str.w	r1, [r2], #4
 800649a:	6841      	ldr	r1, [r0, #4]
 800649c:	f853 cb04 	ldr.w	ip, [r3], #4
 80064a0:	460d      	mov	r5, r1
 80064a2:	b289      	uxth	r1, r1
 80064a4:	429e      	cmp	r6, r3
 80064a6:	ea4f 4c1c 	mov.w	ip, ip, lsr #16
 80064aa:	fb04 110c 	mla	r1, r4, ip, r1
 80064ae:	eb01 4117 	add.w	r1, r1, r7, lsr #16
 80064b2:	ea4f 4711 	mov.w	r7, r1, lsr #16
 80064b6:	d8e3      	bhi.n	8006480 <__multiply+0xcc>
 80064b8:	6041      	str	r1, [r0, #4]
 80064ba:	45d9      	cmp	r9, fp
 80064bc:	f10a 0a04 	add.w	sl, sl, #4
 80064c0:	d8ac      	bhi.n	800641c <__multiply+0x68>
 80064c2:	f8dd 900c 	ldr.w	r9, [sp, #12]
 80064c6:	f1b9 0f00 	cmp.w	r9, #0
 80064ca:	dd0a      	ble.n	80064e2 <__multiply+0x12e>
 80064cc:	9b01      	ldr	r3, [sp, #4]
 80064ce:	3b04      	subs	r3, #4
 80064d0:	681a      	ldr	r2, [r3, #0]
 80064d2:	b11a      	cbz	r2, 80064dc <__multiply+0x128>
 80064d4:	e005      	b.n	80064e2 <__multiply+0x12e>
 80064d6:	f853 2d04 	ldr.w	r2, [r3, #-4]!
 80064da:	b912      	cbnz	r2, 80064e2 <__multiply+0x12e>
 80064dc:	f1b9 0901 	subs.w	r9, r9, #1
 80064e0:	d1f9      	bne.n	80064d6 <__multiply+0x122>
 80064e2:	9902      	ldr	r1, [sp, #8]
 80064e4:	4608      	mov	r0, r1
 80064e6:	f8c1 9010 	str.w	r9, [r1, #16]
 80064ea:	b005      	add	sp, #20
 80064ec:	e8bd 8ff0 	ldmia.w	sp!, {r4, r5, r6, r7, r8, r9, sl, fp, pc}
 80064f0:	461c      	mov	r4, r3
 80064f2:	e7bc      	b.n	800646e <__multiply+0xba>

080064f4 <__pow5mult>:
 80064f4:	f012 0303 	ands.w	r3, r2, #3
 80064f8:	e92d 43f0 	stmdb	sp!, {r4, r5, r6, r7, r8, r9, lr}
 80064fc:	4614      	mov	r4, r2
 80064fe:	b083      	sub	sp, #12
 8006500:	4607      	mov	r7, r0
 8006502:	460e      	mov	r6, r1
 8006504:	d12b      	bne.n	800655e <__pow5mult+0x6a>
 8006506:	10a4      	asrs	r4, r4, #2
 8006508:	d01c      	beq.n	8006544 <__pow5mult+0x50>
 800650a:	6a7b      	ldr	r3, [r7, #36]	; 0x24
 800650c:	2b00      	cmp	r3, #0
 800650e:	d032      	beq.n	8006576 <__pow5mult+0x82>
 8006510:	689d      	ldr	r5, [r3, #8]
 8006512:	2d00      	cmp	r5, #0
 8006514:	d03a      	beq.n	800658c <__pow5mult+0x98>
 8006516:	f04f 0900 	mov.w	r9, #0
 800651a:	e004      	b.n	8006526 <__pow5mult+0x32>
 800651c:	1064      	asrs	r4, r4, #1
 800651e:	d011      	beq.n	8006544 <__pow5mult+0x50>
 8006520:	6828      	ldr	r0, [r5, #0]
 8006522:	b198      	cbz	r0, 800654c <__pow5mult+0x58>
 8006524:	4605      	mov	r5, r0
 8006526:	07e0      	lsls	r0, r4, #31
 8006528:	d5f8      	bpl.n	800651c <__pow5mult+0x28>
 800652a:	4631      	mov	r1, r6
 800652c:	462a      	mov	r2, r5
 800652e:	4638      	mov	r0, r7
 8006530:	f7ff ff40 	bl	80063b4 <__multiply>
 8006534:	4631      	mov	r1, r6
 8006536:	4680      	mov	r8, r0
 8006538:	4638      	mov	r0, r7
 800653a:	f7ff fe39 	bl	80061b0 <_Bfree>
 800653e:	1064      	asrs	r4, r4, #1
 8006540:	4646      	mov	r6, r8
 8006542:	d1ed      	bne.n	8006520 <__pow5mult+0x2c>
 8006544:	4630      	mov	r0, r6
 8006546:	b003      	add	sp, #12
 8006548:	e8bd 83f0 	ldmia.w	sp!, {r4, r5, r6, r7, r8, r9, pc}
 800654c:	4638      	mov	r0, r7
 800654e:	4629      	mov	r1, r5
 8006550:	462a      	mov	r2, r5
 8006552:	f7ff ff2f 	bl	80063b4 <__multiply>
 8006556:	6028      	str	r0, [r5, #0]
 8006558:	f8c0 9000 	str.w	r9, [r0]
 800655c:	e7e2      	b.n	8006524 <__pow5mult+0x30>
 800655e:	f249 42e0 	movw	r2, #38112	; 0x94e0
 8006562:	1e5d      	subs	r5, r3, #1
 8006564:	f6c0 0200 	movt	r2, #2048	; 0x800
 8006568:	2300      	movs	r3, #0
 800656a:	f852 2025 	ldr.w	r2, [r2, r5, lsl #2]
 800656e:	f7ff fe3b 	bl	80061e8 <__multadd>
 8006572:	4606      	mov	r6, r0
 8006574:	e7c7      	b.n	8006506 <__pow5mult+0x12>
 8006576:	2010      	movs	r0, #16
 8006578:	9301      	str	r3, [sp, #4]
 800657a:	f7ff fa7b 	bl	8005a74 <malloc>
 800657e:	9b01      	ldr	r3, [sp, #4]
 8006580:	6278      	str	r0, [r7, #36]	; 0x24
 8006582:	6043      	str	r3, [r0, #4]
 8006584:	6083      	str	r3, [r0, #8]
 8006586:	6003      	str	r3, [r0, #0]
 8006588:	60c3      	str	r3, [r0, #12]
 800658a:	4603      	mov	r3, r0
 800658c:	2101      	movs	r1, #1
 800658e:	4638      	mov	r0, r7
 8006590:	9301      	str	r3, [sp, #4]
 8006592:	f7ff fdd7 	bl	8006144 <_Balloc>
 8006596:	9b01      	ldr	r3, [sp, #4]
 8006598:	f240 2271 	movw	r2, #625	; 0x271
 800659c:	2101      	movs	r1, #1
 800659e:	6142      	str	r2, [r0, #20]
 80065a0:	4605      	mov	r5, r0
 80065a2:	2200      	movs	r2, #0
 80065a4:	6101      	str	r1, [r0, #16]
 80065a6:	6098      	str	r0, [r3, #8]
 80065a8:	6002      	str	r2, [r0, #0]
 80065aa:	e7b4      	b.n	8006516 <__pow5mult+0x22>

080065ac <__lshift>:
 80065ac:	e92d 4ff8 	stmdb	sp!, {r3, r4, r5, r6, r7, r8, r9, sl, fp, lr}
 80065b0:	4693      	mov	fp, r2
 80065b2:	690a      	ldr	r2, [r1, #16]
 80065b4:	460f      	mov	r7, r1
 80065b6:	ea4f 156b 	mov.w	r5, fp, asr #5
 80065ba:	688b      	ldr	r3, [r1, #8]
 80065bc:	eb05 0902 	add.w	r9, r5, r2
 80065c0:	4680      	mov	r8, r0
 80065c2:	f109 0601 	add.w	r6, r9, #1
 80065c6:	6849      	ldr	r1, [r1, #4]
 80065c8:	429e      	cmp	r6, r3
 80065ca:	dd03      	ble.n	80065d4 <__lshift+0x28>
 80065cc:	005b      	lsls	r3, r3, #1
 80065ce:	3101      	adds	r1, #1
 80065d0:	429e      	cmp	r6, r3
 80065d2:	dcfb      	bgt.n	80065cc <__lshift+0x20>
 80065d4:	4640      	mov	r0, r8
 80065d6:	f7ff fdb5 	bl	8006144 <_Balloc>
 80065da:	2d00      	cmp	r5, #0
 80065dc:	4682      	mov	sl, r0
 80065de:	f100 0414 	add.w	r4, r0, #20
 80065e2:	dd09      	ble.n	80065f8 <__lshift+0x4c>
 80065e4:	2300      	movs	r3, #0
 80065e6:	4622      	mov	r2, r4
 80065e8:	4619      	mov	r1, r3
 80065ea:	3301      	adds	r3, #1
 80065ec:	f842 1b04 	str.w	r1, [r2], #4
 80065f0:	42ab      	cmp	r3, r5
 80065f2:	d1fa      	bne.n	80065ea <__lshift+0x3e>
 80065f4:	eb04 0483 	add.w	r4, r4, r3, lsl #2
 80065f8:	693a      	ldr	r2, [r7, #16]
 80065fa:	f01b 0b1f 	ands.w	fp, fp, #31
 80065fe:	f107 0314 	add.w	r3, r7, #20
 8006602:	eb03 0282 	add.w	r2, r3, r2, lsl #2
 8006606:	d01f      	beq.n	8006648 <__lshift+0x9c>
 8006608:	f1cb 0e20 	rsb	lr, fp, #32
 800660c:	2000      	movs	r0, #0
 800660e:	e000      	b.n	8006612 <__lshift+0x66>
 8006610:	462c      	mov	r4, r5
 8006612:	6819      	ldr	r1, [r3, #0]
 8006614:	4625      	mov	r5, r4
 8006616:	fa01 f10b 	lsl.w	r1, r1, fp
 800661a:	4308      	orrs	r0, r1
 800661c:	f845 0b04 	str.w	r0, [r5], #4
 8006620:	f853 0b04 	ldr.w	r0, [r3], #4
 8006624:	4293      	cmp	r3, r2
 8006626:	fa20 f00e 	lsr.w	r0, r0, lr
 800662a:	d3f1      	bcc.n	8006610 <__lshift+0x64>
 800662c:	6060      	str	r0, [r4, #4]
 800662e:	b108      	cbz	r0, 8006634 <__lshift+0x88>
 8006630:	f109 0602 	add.w	r6, r9, #2
 8006634:	4640      	mov	r0, r8
 8006636:	3e01      	subs	r6, #1
 8006638:	4639      	mov	r1, r7
 800663a:	f8ca 6010 	str.w	r6, [sl, #16]
 800663e:	f7ff fdb7 	bl	80061b0 <_Bfree>
 8006642:	4650      	mov	r0, sl
 8006644:	e8bd 8ff8 	ldmia.w	sp!, {r3, r4, r5, r6, r7, r8, r9, sl, fp, pc}
 8006648:	f853 1b04 	ldr.w	r1, [r3], #4
 800664c:	429a      	cmp	r2, r3
 800664e:	f844 1b04 	str.w	r1, [r4], #4
 8006652:	d9ef      	bls.n	8006634 <__lshift+0x88>
 8006654:	f853 1b04 	ldr.w	r1, [r3], #4
 8006658:	429a      	cmp	r2, r3
 800665a:	f844 1b04 	str.w	r1, [r4], #4
 800665e:	d8f3      	bhi.n	8006648 <__lshift+0x9c>
 8006660:	e7e8      	b.n	8006634 <__lshift+0x88>
 8006662:	bf00      	nop

08006664 <__mcmp>:
 8006664:	6902      	ldr	r2, [r0, #16]
 8006666:	690b      	ldr	r3, [r1, #16]
 8006668:	b410      	push	{r4}
 800666a:	1ad2      	subs	r2, r2, r3
 800666c:	bf18      	it	ne
 800666e:	4610      	movne	r0, r2
 8006670:	d112      	bne.n	8006698 <__mcmp+0x34>
 8006672:	009a      	lsls	r2, r3, #2
 8006674:	3014      	adds	r0, #20
 8006676:	3114      	adds	r1, #20
 8006678:	1883      	adds	r3, r0, r2
 800667a:	4411      	add	r1, r2
 800667c:	e001      	b.n	8006682 <__mcmp+0x1e>
 800667e:	4298      	cmp	r0, r3
 8006680:	d20d      	bcs.n	800669e <__mcmp+0x3a>
 8006682:	f853 2d04 	ldr.w	r2, [r3, #-4]!
 8006686:	f851 4d04 	ldr.w	r4, [r1, #-4]!
 800668a:	42a2      	cmp	r2, r4
 800668c:	d0f7      	beq.n	800667e <__mcmp+0x1a>
 800668e:	4294      	cmp	r4, r2
 8006690:	bf94      	ite	ls
 8006692:	2001      	movls	r0, #1
 8006694:	f04f 30ff 	movhi.w	r0, #4294967295
 8006698:	f85d 4b04 	ldr.w	r4, [sp], #4
 800669c:	4770      	bx	lr
 800669e:	2000      	movs	r0, #0
 80066a0:	f85d 4b04 	ldr.w	r4, [sp], #4
 80066a4:	4770      	bx	lr
 80066a6:	bf00      	nop

080066a8 <__mdiff>:
 80066a8:	e92d 4ff8 	stmdb	sp!, {r3, r4, r5, r6, r7, r8, r9, sl, fp, lr}
 80066ac:	4688      	mov	r8, r1
 80066ae:	4605      	mov	r5, r0
 80066b0:	4611      	mov	r1, r2
 80066b2:	4640      	mov	r0, r8
 80066b4:	4614      	mov	r4, r2
 80066b6:	f7ff ffd5 	bl	8006664 <__mcmp>
 80066ba:	1e06      	subs	r6, r0, #0
 80066bc:	d05f      	beq.n	800677e <__mdiff+0xd6>
 80066be:	bfbc      	itt	lt
 80066c0:	4643      	movlt	r3, r8
 80066c2:	46a0      	movlt	r8, r4
 80066c4:	4628      	mov	r0, r5
 80066c6:	bfb8      	it	lt
 80066c8:	461c      	movlt	r4, r3
 80066ca:	f8d8 1004 	ldr.w	r1, [r8, #4]
 80066ce:	bfac      	ite	ge
 80066d0:	2600      	movge	r6, #0
 80066d2:	2601      	movlt	r6, #1
 80066d4:	f7ff fd36 	bl	8006144 <_Balloc>
 80066d8:	f8d8 c010 	ldr.w	ip, [r8, #16]
 80066dc:	f104 0914 	add.w	r9, r4, #20
 80066e0:	6922      	ldr	r2, [r4, #16]
 80066e2:	f108 0814 	add.w	r8, r8, #20
 80066e6:	4644      	mov	r4, r8
 80066e8:	464d      	mov	r5, r9
 80066ea:	eb08 088c 	add.w	r8, r8, ip, lsl #2
 80066ee:	eb09 0982 	add.w	r9, r9, r2, lsl #2
 80066f2:	2200      	movs	r2, #0
 80066f4:	4682      	mov	sl, r0
 80066f6:	f100 0314 	add.w	r3, r0, #20
 80066fa:	60c6      	str	r6, [r0, #12]
 80066fc:	f854 7b04 	ldr.w	r7, [r4], #4
 8006700:	f855 0b04 	ldr.w	r0, [r5], #4
 8006704:	4621      	mov	r1, r4
 8006706:	b2be      	uxth	r6, r7
 8006708:	45a9      	cmp	r9, r5
 800670a:	4432      	add	r2, r6
 800670c:	fa1f fb80 	uxth.w	fp, r0
 8006710:	ebcb 0602 	rsb	r6, fp, r2
 8006714:	ea4f 4210 	mov.w	r2, r0, lsr #16
 8006718:	ebc2 4217 	rsb	r2, r2, r7, lsr #16
 800671c:	eb02 4226 	add.w	r2, r2, r6, asr #16
 8006720:	b2b6      	uxth	r6, r6
 8006722:	ea46 4602 	orr.w	r6, r6, r2, lsl #16
 8006726:	ea4f 4222 	mov.w	r2, r2, asr #16
 800672a:	f843 6b04 	str.w	r6, [r3], #4
 800672e:	d8e5      	bhi.n	80066fc <__mdiff+0x54>
 8006730:	45a0      	cmp	r8, r4
 8006732:	461d      	mov	r5, r3
 8006734:	d916      	bls.n	8006764 <__mdiff+0xbc>
 8006736:	f851 0b04 	ldr.w	r0, [r1], #4
 800673a:	4588      	cmp	r8, r1
 800673c:	b286      	uxth	r6, r0
 800673e:	ea4f 4010 	mov.w	r0, r0, lsr #16
 8006742:	4432      	add	r2, r6
 8006744:	eb00 4022 	add.w	r0, r0, r2, asr #16
 8006748:	b292      	uxth	r2, r2
 800674a:	ea42 4600 	orr.w	r6, r2, r0, lsl #16
 800674e:	ea4f 4220 	mov.w	r2, r0, asr #16
 8006752:	f843 6b04 	str.w	r6, [r3], #4
 8006756:	d8ee      	bhi.n	8006736 <__mdiff+0x8e>
 8006758:	43e3      	mvns	r3, r4
 800675a:	4443      	add	r3, r8
 800675c:	f023 0303 	bic.w	r3, r3, #3
 8006760:	3304      	adds	r3, #4
 8006762:	442b      	add	r3, r5
 8006764:	3b04      	subs	r3, #4
 8006766:	b92e      	cbnz	r6, 8006774 <__mdiff+0xcc>
 8006768:	f853 2d04 	ldr.w	r2, [r3, #-4]!
 800676c:	f10c 3cff 	add.w	ip, ip, #4294967295
 8006770:	2a00      	cmp	r2, #0
 8006772:	d0f9      	beq.n	8006768 <__mdiff+0xc0>
 8006774:	4650      	mov	r0, sl
 8006776:	f8ca c010 	str.w	ip, [sl, #16]
 800677a:	e8bd 8ff8 	ldmia.w	sp!, {r3, r4, r5, r6, r7, r8, r9, sl, fp, pc}
 800677e:	4628      	mov	r0, r5
 8006780:	4631      	mov	r1, r6
 8006782:	f7ff fcdf 	bl	8006144 <_Balloc>
 8006786:	2201      	movs	r2, #1
 8006788:	4603      	mov	r3, r0
 800678a:	615e      	str	r6, [r3, #20]
 800678c:	611a      	str	r2, [r3, #16]
 800678e:	e8bd 8ff8 	ldmia.w	sp!, {r3, r4, r5, r6, r7, r8, r9, sl, fp, pc}
 8006792:	bf00      	nop

08006794 <__ulp>:
 8006794:	2300      	movs	r3, #0
 8006796:	f6c7 73f0 	movt	r3, #32752	; 0x7ff0
 800679a:	400b      	ands	r3, r1
 800679c:	f1a3 7350 	sub.w	r3, r3, #54525952	; 0x3400000
 80067a0:	2b00      	cmp	r3, #0
 80067a2:	dd02      	ble.n	80067aa <__ulp+0x16>
 80067a4:	4619      	mov	r1, r3
 80067a6:	2000      	movs	r0, #0
 80067a8:	4770      	bx	lr
 80067aa:	425b      	negs	r3, r3
 80067ac:	151b      	asrs	r3, r3, #20
 80067ae:	2b13      	cmp	r3, #19
 80067b0:	dd0b      	ble.n	80067ca <__ulp+0x36>
 80067b2:	2b32      	cmp	r3, #50	; 0x32
 80067b4:	f04f 0100 	mov.w	r1, #0
 80067b8:	bfdb      	ittet	le
 80067ba:	2201      	movle	r2, #1
 80067bc:	f1c3 0333 	rsble	r3, r3, #51	; 0x33
 80067c0:	2301      	movgt	r3, #1
 80067c2:	fa02 f303 	lslle.w	r3, r2, r3
 80067c6:	4618      	mov	r0, r3
 80067c8:	4770      	bx	lr
 80067ca:	f44f 2200 	mov.w	r2, #524288	; 0x80000
 80067ce:	2000      	movs	r0, #0
 80067d0:	fa42 f103 	asr.w	r1, r2, r3
 80067d4:	4770      	bx	lr
 80067d6:	bf00      	nop

080067d8 <__b2d>:
 80067d8:	b5f8      	push	{r3, r4, r5, r6, r7, lr}
 80067da:	f100 0614 	add.w	r6, r0, #20
 80067de:	6904      	ldr	r4, [r0, #16]
 80067e0:	eb06 0484 	add.w	r4, r6, r4, lsl #2
 80067e4:	1f27      	subs	r7, r4, #4
 80067e6:	f854 5c04 	ldr.w	r5, [r4, #-4]
 80067ea:	4628      	mov	r0, r5
 80067ec:	f7ff fd8e 	bl	800630c <__hi0bits>
 80067f0:	280a      	cmp	r0, #10
 80067f2:	f1c0 0320 	rsb	r3, r0, #32
 80067f6:	600b      	str	r3, [r1, #0]
 80067f8:	dc18      	bgt.n	800682c <__b2d+0x54>
 80067fa:	42be      	cmp	r6, r7
 80067fc:	f1c0 010b 	rsb	r1, r0, #11
 8006800:	fa25 fc01 	lsr.w	ip, r5, r1
 8006804:	f100 0015 	add.w	r0, r0, #21
 8006808:	bf34      	ite	cc
 800680a:	f854 4c08 	ldrcc.w	r4, [r4, #-8]
 800680e:	2100      	movcs	r1, #0
 8006810:	fa05 f500 	lsl.w	r5, r5, r0
 8006814:	f04c 5c7f 	orr.w	ip, ip, #1069547520	; 0x3fc00000
 8006818:	f44c 1340 	orr.w	r3, ip, #3145728	; 0x300000
 800681c:	bf38      	it	cc
 800681e:	fa24 f101 	lsrcc.w	r1, r4, r1
 8006822:	ea41 0205 	orr.w	r2, r1, r5
 8006826:	4619      	mov	r1, r3
 8006828:	4610      	mov	r0, r2
 800682a:	bdf8      	pop	{r3, r4, r5, r6, r7, pc}
 800682c:	42be      	cmp	r6, r7
 800682e:	bf36      	itet	cc
 8006830:	f1a4 0708 	subcc.w	r7, r4, #8
 8006834:	2100      	movcs	r1, #0
 8006836:	f854 1c08 	ldrcc.w	r1, [r4, #-8]
 800683a:	f1b0 040b 	subs.w	r4, r0, #11
 800683e:	d019      	beq.n	8006874 <__b2d+0x9c>
 8006840:	40a5      	lsls	r5, r4
 8006842:	f1c0 002b 	rsb	r0, r0, #43	; 0x2b
 8006846:	42b7      	cmp	r7, r6
 8006848:	f045 557f 	orr.w	r5, r5, #1069547520	; 0x3fc00000
 800684c:	fa21 fc00 	lsr.w	ip, r1, r0
 8006850:	f445 1540 	orr.w	r5, r5, #3145728	; 0x300000
 8006854:	ea45 030c 	orr.w	r3, r5, ip
 8006858:	bf8c      	ite	hi
 800685a:	f857 5c04 	ldrhi.w	r5, [r7, #-4]
 800685e:	2000      	movls	r0, #0
 8006860:	fa01 f104 	lsl.w	r1, r1, r4
 8006864:	bf88      	it	hi
 8006866:	fa25 f000 	lsrhi.w	r0, r5, r0
 800686a:	ea40 0201 	orr.w	r2, r0, r1
 800686e:	4619      	mov	r1, r3
 8006870:	4610      	mov	r0, r2
 8006872:	bdf8      	pop	{r3, r4, r5, r6, r7, pc}
 8006874:	f045 557f 	orr.w	r5, r5, #1069547520	; 0x3fc00000
 8006878:	460a      	mov	r2, r1
 800687a:	f445 1340 	orr.w	r3, r5, #3145728	; 0x300000
 800687e:	4610      	mov	r0, r2
 8006880:	4619      	mov	r1, r3
 8006882:	bdf8      	pop	{r3, r4, r5, r6, r7, pc}

08006884 <__d2b>:
 8006884:	e92d 41f0 	stmdb	sp!, {r4, r5, r6, r7, r8, lr}
 8006888:	b082      	sub	sp, #8
 800688a:	2101      	movs	r1, #1
 800688c:	461d      	mov	r5, r3
 800688e:	f3c3 560a 	ubfx	r6, r3, #20, #11
 8006892:	4614      	mov	r4, r2
 8006894:	9f08      	ldr	r7, [sp, #32]
 8006896:	f7ff fc55 	bl	8006144 <_Balloc>
 800689a:	f3c5 0313 	ubfx	r3, r5, #0, #20
 800689e:	4684      	mov	ip, r0
 80068a0:	b10e      	cbz	r6, 80068a6 <__d2b+0x22>
 80068a2:	f443 1380 	orr.w	r3, r3, #1048576	; 0x100000
 80068a6:	9301      	str	r3, [sp, #4]
 80068a8:	b324      	cbz	r4, 80068f4 <__d2b+0x70>
 80068aa:	a802      	add	r0, sp, #8
 80068ac:	f840 4d08 	str.w	r4, [r0, #-8]!
 80068b0:	4668      	mov	r0, sp
 80068b2:	f7ff fd49 	bl	8006348 <__lo0bits>
 80068b6:	2800      	cmp	r0, #0
 80068b8:	d134      	bne.n	8006924 <__d2b+0xa0>
 80068ba:	9b00      	ldr	r3, [sp, #0]
 80068bc:	9901      	ldr	r1, [sp, #4]
 80068be:	f8cc 3014 	str.w	r3, [ip, #20]
 80068c2:	f8cc 1018 	str.w	r1, [ip, #24]
 80068c6:	2900      	cmp	r1, #0
 80068c8:	bf0c      	ite	eq
 80068ca:	2101      	moveq	r1, #1
 80068cc:	2102      	movne	r1, #2
 80068ce:	f8cc 1010 	str.w	r1, [ip, #16]
 80068d2:	b9de      	cbnz	r6, 800690c <__d2b+0x88>
 80068d4:	eb0c 0381 	add.w	r3, ip, r1, lsl #2
 80068d8:	f2a0 4032 	subw	r0, r0, #1074	; 0x432
 80068dc:	6038      	str	r0, [r7, #0]
 80068de:	6918      	ldr	r0, [r3, #16]
 80068e0:	f7ff fd14 	bl	800630c <__hi0bits>
 80068e4:	9b09      	ldr	r3, [sp, #36]	; 0x24
 80068e6:	ebc0 1041 	rsb	r0, r0, r1, lsl #5
 80068ea:	6018      	str	r0, [r3, #0]
 80068ec:	4660      	mov	r0, ip
 80068ee:	b002      	add	sp, #8
 80068f0:	e8bd 81f0 	ldmia.w	sp!, {r4, r5, r6, r7, r8, pc}
 80068f4:	a801      	add	r0, sp, #4
 80068f6:	f7ff fd27 	bl	8006348 <__lo0bits>
 80068fa:	9b01      	ldr	r3, [sp, #4]
 80068fc:	2101      	movs	r1, #1
 80068fe:	f8cc 3014 	str.w	r3, [ip, #20]
 8006902:	3020      	adds	r0, #32
 8006904:	f8cc 1010 	str.w	r1, [ip, #16]
 8006908:	2e00      	cmp	r6, #0
 800690a:	d0e3      	beq.n	80068d4 <__d2b+0x50>
 800690c:	9a09      	ldr	r2, [sp, #36]	; 0x24
 800690e:	f2a6 4833 	subw	r8, r6, #1075	; 0x433
 8006912:	f1c0 0335 	rsb	r3, r0, #53	; 0x35
 8006916:	4440      	add	r0, r8
 8006918:	6038      	str	r0, [r7, #0]
 800691a:	4660      	mov	r0, ip
 800691c:	6013      	str	r3, [r2, #0]
 800691e:	b002      	add	sp, #8
 8006920:	e8bd 81f0 	ldmia.w	sp!, {r4, r5, r6, r7, r8, pc}
 8006924:	9b01      	ldr	r3, [sp, #4]
 8006926:	f1c0 0420 	rsb	r4, r0, #32
 800692a:	9a00      	ldr	r2, [sp, #0]
 800692c:	fa03 f404 	lsl.w	r4, r3, r4
 8006930:	40c3      	lsrs	r3, r0
 8006932:	4322      	orrs	r2, r4
 8006934:	4619      	mov	r1, r3
 8006936:	9301      	str	r3, [sp, #4]
 8006938:	f8cc 2014 	str.w	r2, [ip, #20]
 800693c:	e7c1      	b.n	80068c2 <__d2b+0x3e>
 800693e:	bf00      	nop

08006940 <__ratio>:
 8006940:	e92d 43f0 	stmdb	sp!, {r4, r5, r6, r7, r8, r9, lr}
 8006944:	b083      	sub	sp, #12
 8006946:	4688      	mov	r8, r1
 8006948:	4669      	mov	r1, sp
 800694a:	4606      	mov	r6, r0
 800694c:	f7ff ff44 	bl	80067d8 <__b2d>
 8006950:	460d      	mov	r5, r1
 8006952:	4604      	mov	r4, r0
 8006954:	a901      	add	r1, sp, #4
 8006956:	4640      	mov	r0, r8
 8006958:	f7ff ff3e 	bl	80067d8 <__b2d>
 800695c:	f8d8 e010 	ldr.w	lr, [r8, #16]
 8006960:	462f      	mov	r7, r5
 8006962:	4602      	mov	r2, r0
 8006964:	6930      	ldr	r0, [r6, #16]
 8006966:	460b      	mov	r3, r1
 8006968:	4689      	mov	r9, r1
 800696a:	ebce 0e00 	rsb	lr, lr, r0
 800696e:	e89d 0003 	ldmia.w	sp, {r0, r1}
 8006972:	ebc1 0c00 	rsb	ip, r1, r0
 8006976:	eb0c 114e 	add.w	r1, ip, lr, lsl #5
 800697a:	2900      	cmp	r1, #0
 800697c:	bfc9      	itett	gt
